00000000  C3                ret
00000001  B9008000C0        mov ecx,0xc0008000
00000006  81E9002000C0      sub ecx,0xc0002000
0000000C  C1E902            shr ecx,byte 0x2
0000000F  BF002000C0        mov edi,0xc0002000
00000014  F3AB              rep stosd
00000016  A00E1500C0        mov al,[0xc000150e]
0000001B  0F0115081500C0    lgdt [dword 0xc0001508]
00000022  EBFE              jmp short 0x22
00000024  0F011D001500C0    lidt [dword 0xc0001500]
0000002B  0F00155F0000C0    lldt [dword 0xc000005f]
00000032  66B81800          mov ax,0x18
00000036  8ED8              mov ds,eax
00000038  8EC0              mov es,eax
0000003A  8ED0              mov ss,eax
0000003C  6631C0            xor ax,ax
0000003F  8EE0              mov fs,eax
00000041  8EE8              mov gs,eax
00000043  EA4A0000C00800    jmp 0x8:0xc000004a
0000004A  BCC87000C0        mov esp,0xc00070c8
0000004F  E8B0010000        call 0x204
00000054  F4                hlt
00000055  EBFD              jmp short 0x54
00000057  0000              add [eax],al
00000059  0000              add [eax],al
0000005B  0000              add [eax],al
0000005D  0000              add [eax],al
0000005F  0800              or [eax],al
00000061  57                push edi
00000062  0000              add [eax],al
00000064  C0669090          shl byte [esi-0x70],byte 0x90
00000068  C3                ret
00000069  6690              xchg ax,ax
0000006B  90                nop
0000006C  53                push ebx
0000006D  8B442408          mov eax,[esp+0x8]
00000071  0FB75802          movzx ebx,word [eax+0x2]
00000075  0FB7480A          movzx ecx,word [eax+0xa]
00000079  0FB710            movzx edx,word [eax]
0000007C  0FAFCA            imul ecx,edx
0000007F  0FB75008          movzx edx,word [eax+0x8]
00000083  01CA              add edx,ecx
00000085  0FAFD3            imul edx,ebx
00000088  0FB7400C          movzx eax,word [eax+0xc]
0000008C  8D4402FF          lea eax,[edx+eax-0x1]
00000090  5B                pop ebx
00000091  C3                ret
00000092  6690              xchg ax,ax
00000094  8B442408          mov eax,[esp+0x8]
00000098  807C240401        cmp byte [esp+0x4],0x1
0000009D  7620              jna 0xbf
0000009F  663DFF00          cmp ax,0xff
000000A3  771A              ja 0xbf
000000A5  E602              out 0x2,al
000000A7  8A44240C          mov al,[esp+0xc]
000000AB  E603              out 0x3,al
000000AD  8B44240C          mov eax,[esp+0xc]
000000B1  C1E808            shr eax,byte 0x8
000000B4  E604              out 0x4,al
000000B6  8B44240C          mov eax,[esp+0xc]
000000BA  C1E810            shr eax,byte 0x10
000000BD  E605              out 0x5,al
000000BF  B8FFFFFFFF        mov eax,0xffffffff
000000C4  C3                ret
000000C5  8D7600            lea esi,[esi+0x0]
000000C8  C3                ret
000000C9  8D7600            lea esi,[esi+0x0]
000000CC  BAF7010000        mov edx,0x1f7
000000D1  EC                in al,dx
000000D2  FEC0              inc al
000000D4  7407              jz 0xdd
000000D6  800D022000C001    or byte [dword 0xc0002002],0x1
000000DD  BA77010000        mov edx,0x177
000000E2  EC                in al,dx
000000E3  FEC0              inc al
000000E5  7407              jz 0xee
000000E7  800D002000C001    or byte [dword 0xc0002000],0x1
000000EE  C3                ret
000000EF  90                nop
000000F0  57                push edi
000000F1  53                push ebx
000000F2  B108              mov cl,0x8
000000F4  B8202000C0        mov eax,0xc0002020
000000F9  BB601500C0        mov ebx,0xc0001560
000000FE  66894302          mov [ebx+0x2],ax
00000102  D3E8              shr eax,cl
00000104  884303            mov [ebx+0x3],al
00000107  D3E8              shr eax,cl
00000109  886307            mov [ebx+0x7],ah
0000010C  B820000000        mov eax,0x20
00000111  0F00D8            ltr ax
00000114  BA864000C0        mov edx,0xc0004086
00000119  B900200000        mov ecx,0x2000
0000011E  B3FF              mov bl,0xff
00000120  89D7              mov edi,edx
00000122  88D8              mov al,bl
00000124  F3AA              rep stosb
00000126  B111              mov cl,0x11
00000128  88C8              mov al,cl
0000012A  E620              out 0x20,al
0000012C  31D2              xor edx,edx
0000012E  88D0              mov al,dl
00000130  E680              out 0x80,al
00000132  88C8              mov al,cl
00000134  E6A0              out 0xa0,al
00000136  88D0              mov al,dl
00000138  E680              out 0x80,al
0000013A  B020              mov al,0x20
0000013C  E621              out 0x21,al
0000013E  88D0              mov al,dl
00000140  E680              out 0x80,al
00000142  B028              mov al,0x28
00000144  E6A1              out 0xa1,al
00000146  88D0              mov al,dl
00000148  E680              out 0x80,al
0000014A  B004              mov al,0x4
0000014C  E621              out 0x21,al
0000014E  88D0              mov al,dl
00000150  E680              out 0x80,al
00000152  B002              mov al,0x2
00000154  E6A1              out 0xa1,al
00000156  88D0              mov al,dl
00000158  E680              out 0x80,al
0000015A  B001              mov al,0x1
0000015C  E621              out 0x21,al
0000015E  88D0              mov al,dl
00000160  E680              out 0x80,al
00000162  B009              mov al,0x9
00000164  E6A1              out 0xa1,al
00000166  88D0              mov al,dl
00000168  E680              out 0x80,al
0000016A  B10B              mov cl,0xb
0000016C  88C8              mov al,cl
0000016E  E620              out 0x20,al
00000170  88D0              mov al,dl
00000172  E680              out 0x80,al
00000174  88C8              mov al,cl
00000176  E6A0              out 0xa0,al
00000178  88D0              mov al,dl
0000017A  E680              out 0x80,al
0000017C  88D8              mov al,bl
0000017E  E6A1              out 0xa1,al
00000180  88D0              mov al,dl
00000182  E680              out 0x80,al
00000184  88D8              mov al,bl
00000186  E621              out 0x21,al
00000188  88D0              mov al,dl
0000018A  E680              out 0x80,al
0000018C  BA910500C0        mov edx,0xc0000591
00000191  31C0              xor eax,eax
00000193  EB0A              jmp short 0x19f
00000195  8D7600            lea esi,[esi+0x0]
00000198  8B1485A01400C0    mov edx,[eax*4-0x3fffeb60]
0000019F  C604C5A56000C08E  mov byte [eax*8-0x3fff9f5b],0x8e
000001A7  668914C5A06000C0  mov [eax*8-0x3fff9f60],dx
000001AF  C1EA10            shr edx,byte 0x10
000001B2  668914C5A66000C0  mov [eax*8-0x3fff9f5a],dx
000001BA  C604C5A46000C000  mov byte [eax*8-0x3fff9f5c],0x0
000001C2  40                inc eax
000001C3  83F80F            cmp eax,byte +0xf
000001C6  75D0              jnz 0x198
000001C8  BA200500C0        mov edx,0xc0000520
000001CD  31C0              xor eax,eax
000001CF  90                nop
000001D0  C604C51D6100C00E  mov byte [eax*8-0x3fff9ee3],0xe
000001D8  668914C5186100C0  mov [eax*8-0x3fff9ee8],dx
000001E0  89D1              mov ecx,edx
000001E2  C1E910            shr ecx,byte 0x10
000001E5  66890CC51E6100C0  mov [eax*8-0x3fff9ee2],cx
000001ED  C604C51C6100C000  mov byte [eax*8-0x3fff9ee4],0x0
000001F5  40                inc eax
000001F6  83C204            add edx,byte +0x4
000001F9  83F810            cmp eax,byte +0x10
000001FC  75D2              jnz 0x1d0
000001FE  5B                pop ebx
000001FF  5F                pop edi
00000200  C3                ret
00000201  6690              xchg ax,ax
00000203  90                nop
00000204  C3                ret
00000205  6690              xchg ax,ax
00000207  90                nop
00000208  C3                ret
00000209  8D7600            lea esi,[esi+0x0]
0000020C  C3                ret
0000020D  8D7600            lea esi,[esi+0x0]
00000210  C3                ret
00000211  6690              xchg ax,ax
00000213  90                nop
00000214  50                push eax
00000215  C7042400000F00    mov dword [esp],0xf0000
0000021C  8B0424            mov eax,[esp]
0000021F  C70024506E50      mov dword [eax],0x506e5024
00000225  5A                pop edx
00000226  C3                ret
00000227  90                nop
00000228  C3                ret
00000229  8D7600            lea esi,[esi+0x0]
0000022C  A1A06C00C0        mov eax,[0xc0006ca0]
00000231  83F83F            cmp eax,byte +0x3f
00000234  772E              ja 0x264
00000236  57                push edi
00000237  56                push esi
00000238  A1A06C00C0        mov eax,[0xc0006ca0]
0000023D  C1E004            shl eax,byte 0x4
00000240  05A06800C0        add eax,0xc00068a0
00000245  B904000000        mov ecx,0x4
0000024A  89C7              mov edi,eax
0000024C  8B74240C          mov esi,[esp+0xc]
00000250  F3A5              rep movsd
00000252  A1A06C00C0        mov eax,[0xc0006ca0]
00000257  40                inc eax
00000258  A3A06C00C0        mov [0xc0006ca0],eax
0000025D  31C0              xor eax,eax
0000025F  5E                pop esi
00000260  5F                pop edi
00000261  C3                ret
00000262  6690              xchg ax,ax
00000264  B8FFFFFFFF        mov eax,0xffffffff
00000269  C3                ret
0000026A  6690              xchg ax,ax
0000026C  A1A06C00C0        mov eax,[0xc0006ca0]
00000271  48                dec eax
00000272  742D              jz 0x2a1
00000274  31C0              xor eax,eax
00000276  6690              xchg ax,ax
00000278  89C2              mov edx,eax
0000027A  C1E204            shl edx,byte 0x4
0000027D  81C2A06800C0      add edx,0xc00068a0
00000283  8B5204            mov edx,[edx+0x4]
00000286  8B15A06C00C0      mov edx,[dword 0xc0006ca0]
0000028C  C1E204            shl edx,byte 0x4
0000028F  8B92A06800C0      mov edx,[edx-0x3fff9760]
00000295  40                inc eax
00000296  8B15A06C00C0      mov edx,[dword 0xc0006ca0]
0000029C  4A                dec edx
0000029D  39C2              cmp edx,eax
0000029F  77D7              ja 0x278
000002A1  31C0              xor eax,eax
000002A3  C3                ret
000002A4  8B442404          mov eax,[esp+0x4]
000002A8  83E00F            and eax,byte +0xf
000002AB  C1E004            shl eax,byte 0x4
000002AE  05801500C0        add eax,0xc0001580
000002B3  C3                ret
000002B4  56                push esi
000002B5  53                push ebx
000002B6  51                push ecx
000002B7  8B542418          mov edx,[esp+0x18]
000002BB  0FB75C2410        movzx ebx,word [esp+0x10]
000002C0  31C9              xor ecx,ecx
000002C2  BE01000000        mov esi,0x1
000002C7  90                nop
000002C8  89F0              mov eax,esi
000002CA  D3E0              shl eax,cl
000002CC  21D8              and eax,ebx
000002CE  750C              jnz 0x2dc
000002D0  41                inc ecx
000002D1  83F910            cmp ecx,byte +0x10
000002D4  75F2              jnz 0x2c8
000002D6  5A                pop edx
000002D7  5B                pop ebx
000002D8  5E                pop esi
000002D9  C3                ret
000002DA  6690              xchg ax,ax
000002DC  C1E104            shl ecx,byte 0x4
000002DF  81C1801500C0      add ecx,0xc0001580
000002E5  890C24            mov [esp],ecx
000002E8  FA                cli
000002E9  8B0424            mov eax,[esp]
000002EC  8A00              mov al,[eax]
000002EE  83E0FD            and eax,byte -0x3
000002F1  FEC8              dec al
000002F3  7409              jz 0x2fe
000002F5  B8FFFFFFFF        mov eax,0xffffffff
000002FA  5A                pop edx
000002FB  5B                pop ebx
000002FC  5E                pop esi
000002FD  C3                ret
000002FE  8B0424            mov eax,[esp]
00000301  8B4C241C          mov ecx,[esp+0x1c]
00000305  89480C            mov [eax+0xc],ecx
00000308  8B0424            mov eax,[esp]
0000030B  885008            mov [eax+0x8],dl
0000030E  8B0424            mov eax,[esp]
00000311  8B542414          mov edx,[esp+0x14]
00000315  895004            mov [eax+0x4],edx
00000318  8B0424            mov eax,[esp]
0000031B  C60002            mov byte [eax],0x2
0000031E  31C0              xor eax,eax
00000320  5A                pop edx
00000321  5B                pop ebx
00000322  5E                pop esi
00000323  C3                ret
00000324  66A1A46C00C0      mov ax,[0xc0006ca4]
0000032A  0B442404          or eax,[esp+0x4]
0000032E  66A3A46C00C0      mov [0xc0006ca4],ax
00000334  C3                ret
00000335  8D7600            lea esi,[esi+0x0]
00000338  C705A06C00C01400  mov dword [dword 0xc0006ca0],0x14
         -0000
00000342  C3                ret
00000343  90                nop
00000344  C3                ret
00000345  8D7600            lea esi,[esi+0x0]
00000348  C3                ret
00000349  8D7600            lea esi,[esi+0x0]
0000034C  C3                ret
0000034D  8D7600            lea esi,[esi+0x0]
00000350  C3                ret
00000351  8D7600            lea esi,[esi+0x0]
00000354  C3                ret
00000355  8D7600            lea esi,[esi+0x0]
00000358  C3                ret
00000359  8D7600            lea esi,[esi+0x0]
0000035C  C3                ret
0000035D  8D7600            lea esi,[esi+0x0]
00000360  C3                ret
00000361  8D7600            lea esi,[esi+0x0]
00000364  C3                ret
00000365  8D7600            lea esi,[esi+0x0]
00000368  C3                ret
00000369  8D7600            lea esi,[esi+0x0]
0000036C  C3                ret
0000036D  8D7600            lea esi,[esi+0x0]
00000370  C3                ret
00000371  8D7600            lea esi,[esi+0x0]
00000374  C3                ret
00000375  8D7600            lea esi,[esi+0x0]
00000378  C3                ret
00000379  8D7600            lea esi,[esi+0x0]
0000037C  C3                ret
0000037D  8D7600            lea esi,[esi+0x0]
00000380  56                push esi
00000381  53                push ebx
00000382  56                push esi
00000383  8B742414          mov esi,[esp+0x14]
00000387  31C9              xor ecx,ecx
00000389  88C8              mov al,cl
0000038B  E680              out 0x80,al
0000038D  E420              in al,0x20
0000038F  0FB6D0            movzx edx,al
00000392  88C8              mov al,cl
00000394  E680              out 0x80,al
00000396  E4A0              in al,0xa0
00000398  88C3              mov bl,al
0000039A  C1E308            shl ebx,byte 0x8
0000039D  09D3              or ebx,edx
0000039F  56                push esi
000003A0  E8FFFEFFFF        call 0x2a4
000003A5  89442404          mov [esp+0x4],eax
000003A9  C605BC6C00C001    mov byte [dword 0xc0006cbc],0x1
000003B0  58                pop eax
000003B1  F6C301            test bl,0x1
000003B4  7411              jz 0x3c7
000003B6  8105B06C00C00000  add dword [dword 0xc0006cb0],0x10000000
         -0010
000003C0  8315B46C00C000    adc dword [dword 0xc0006cb4],byte +0x0
000003C7  83FE07            cmp esi,byte +0x7
000003CA  7470              jz 0x43c
000003CC  83FE0F            cmp esi,byte +0xf
000003CF  7417              jz 0x3e8
000003D1  8B0424            mov eax,[esp]
000003D4  803803            cmp byte [eax],0x3
000003D7  742F              jz 0x408
000003D9  8B0424            mov eax,[esp]
000003DC  803802            cmp byte [eax],0x2
000003DF  7427              jz 0x408
000003E1  58                pop eax
000003E2  5B                pop ebx
000003E3  5E                pop esi
000003E4  C3                ret
000003E5  8D7600            lea esi,[esi+0x0]
000003E8  66C1EB08          shr bx,byte 0x8
000003EC  75E3              jnz 0x3d1
000003EE  B020              mov al,0x20
000003F0  E620              out 0x20,al
000003F2  31C0              xor eax,eax
000003F4  E680              out 0x80,al
000003F6  A1B86C00C0        mov eax,[0xc0006cb8]
000003FB  40                inc eax
000003FC  A3B86C00C0        mov [0xc0006cb8],eax
00000401  58                pop eax
00000402  5B                pop ebx
00000403  5E                pop esi
00000404  C3                ret
00000405  8D7600            lea esi,[esi+0x0]
00000408  8B0424            mov eax,[esp]
0000040B  80780800          cmp byte [eax+0x8],0x0
0000040F  7501              jnz 0x412
00000411  FB                sti
00000412  8B0424            mov eax,[esp]
00000415  FF742410          push dword [esp+0x10]
00000419  FF5004            call [eax+0x4]
0000041C  FA                cli
0000041D  B120              mov cl,0x20
0000041F  88C8              mov al,cl
00000421  E620              out 0x20,al
00000423  31D2              xor edx,edx
00000425  88D0              mov al,dl
00000427  E680              out 0x80,al
00000429  5B                pop ebx
0000042A  89F0              mov eax,esi
0000042C  3C07              cmp al,0x7
0000042E  76B1              jna 0x3e1
00000430  88C8              mov al,cl
00000432  E6A1              out 0xa1,al
00000434  88D0              mov al,dl
00000436  E680              out 0x80,al
00000438  58                pop eax
00000439  5B                pop ebx
0000043A  5E                pop esi
0000043B  C3                ret
0000043C  84DB              test bl,bl
0000043E  7591              jnz 0x3d1
00000440  EBB4              jmp short 0x3f6
00000442  6690              xchg ax,ax
00000444  FF35801600C0      push dword [dword 0xc0001680]
0000044A  6A01              push byte +0x1
0000044C  6A00              push byte +0x0
0000044E  6A01              push byte +0x1
00000450  E85FFEFFFF        call 0x2b4
00000455  83C410            add esp,byte +0x10
00000458  C3                ret
00000459  6690              xchg ax,ax
0000045B  90                nop
0000045C  57                push edi
0000045D  56                push esi
0000045E  53                push ebx
0000045F  8B542410          mov edx,[esp+0x10]
00000463  8B1A              mov ebx,[edx]
00000465  8B7204            mov esi,[edx+0x4]
00000468  89F7              mov edi,esi
0000046A  C1E704            shl edi,byte 0x4
0000046D  81E7F0FF0F00      and edi,0xffff0
00000473  0FB7C3            movzx eax,bx
00000476  01C7              add edi,eax
00000478  8B420C            mov eax,[edx+0xc]
0000047B  C1E004            shl eax,byte 0x4
0000047E  25F0FF0F00        and eax,0xffff0
00000483  0FB74A10          movzx ecx,word [edx+0x10]
00000487  01C8              add eax,ecx
00000489  8A0F              mov cl,[edi]
0000048B  80F9FA            cmp cl,0xfa
0000048E  0F8480000000      jz near 0x514
00000494  7732              ja 0x4c8
00000496  80F9CD            cmp cl,0xcd
00000499  7439              jz 0x4d4
0000049B  80F9CF            cmp cl,0xcf
0000049E  7523              jnz 0x4c3
000004A0  8A0DBD6C00C0      mov cl,[dword 0xc0006cbd]
000004A6  84C9              test cl,cl
000004A8  7562              jnz 0x50c
000004AA  0FB708            movzx ecx,word [eax]
000004AD  66894A08          mov [edx+0x8],cx
000004B1  0FB748FE          movzx ecx,word [eax-0x2]
000004B5  41                inc ecx
000004B6  890A              mov [edx],ecx
000004B8  0FB740FC          movzx eax,word [eax-0x4]
000004BC  894204            mov [edx+0x4],eax
000004BF  83423008          add dword [edx+0x30],byte +0x8
000004C3  5B                pop ebx
000004C4  5E                pop esi
000004C5  5F                pop edi
000004C6  C3                ret
000004C7  90                nop
000004C8  80F9FB            cmp cl,0xfb
000004CB  75F6              jnz 0x4c3
000004CD  FB                sti
000004CE  FF02              inc dword [edx]
000004D0  5B                pop ebx
000004D1  5E                pop esi
000004D2  5F                pop edi
000004D3  C3                ret
000004D4  0FB64F01          movzx ecx,byte [edi+0x1]
000004D8  8B7A08            mov edi,[edx+0x8]
000004DB  668938            mov [eax],di
000004DE  668970FE          mov [eax-0x2],si
000004E2  83C302            add ebx,byte +0x2
000004E5  668958FC          mov [eax-0x4],bx
000004E9  836A3008          sub dword [edx+0x30],byte +0x8
000004ED  0FB71C8D00000040  movzx ebx,word [ecx*4+0x40000000]
000004F5  891A              mov [edx],ebx
000004F7  0FB70C8D02000040  movzx ecx,word [ecx*4+0x40000002]
000004FF  894A04            mov [edx+0x4],ecx
00000502  8A0DBD6C00C0      mov cl,[dword 0xc0006cbd]
00000508  84C9              test cl,cl
0000050A  749E              jz 0x4aa
0000050C  5B                pop ebx
0000050D  5E                pop esi
0000050E  5F                pop edi
0000050F  E95C020000        jmp 0x770
00000514  FA                cli
00000515  FF02              inc dword [edx]
00000517  5B                pop ebx
00000518  5E                pop esi
00000519  5F                pop edi
0000051A  C3                ret
0000051B  6690              xchg ax,ax
0000051D  6690              xchg ax,ax
0000051F  90                nop
00000520  6A00              push byte +0x0
00000522  EB3C              jmp short 0x560
00000524  6A01              push byte +0x1
00000526  EB38              jmp short 0x560
00000528  6A02              push byte +0x2
0000052A  EB34              jmp short 0x560
0000052C  6A03              push byte +0x3
0000052E  EB30              jmp short 0x560
00000530  6A04              push byte +0x4
00000532  EB2C              jmp short 0x560
00000534  6A05              push byte +0x5
00000536  EB28              jmp short 0x560
00000538  6A06              push byte +0x6
0000053A  EB24              jmp short 0x560
0000053C  6A07              push byte +0x7
0000053E  EB20              jmp short 0x560
00000540  6A08              push byte +0x8
00000542  EB1C              jmp short 0x560
00000544  6A09              push byte +0x9
00000546  EB18              jmp short 0x560
00000548  6A0A              push byte +0xa
0000054A  EB14              jmp short 0x560
0000054C  6A0B              push byte +0xb
0000054E  EB10              jmp short 0x560
00000550  6A0C              push byte +0xc
00000552  EB0C              jmp short 0x560
00000554  6A0D              push byte +0xd
00000556  EB08              jmp short 0x560
00000558  6A0E              push byte +0xe
0000055A  EB04              jmp short 0x560
0000055C  6A0F              push byte +0xf
0000055E  EB00              jmp short 0x560
00000560  8F05C46C00C0      pop dword [dword 0xc0006cc4]
00000566  55                push ebp
00000567  54                push esp
00000568  57                push edi
00000569  56                push esi
0000056A  52                push edx
0000056B  51                push ecx
0000056C  53                push ebx
0000056D  50                push eax
0000056E  8D442430          lea eax,[esp+0x30]
00000572  8B15C46C00C0      mov edx,[dword 0xc0006cc4]
00000578  E803FEFFFF        call 0x380
0000057D  83C404            add esp,byte +0x4
00000580  58                pop eax
00000581  5B                pop ebx
00000582  59                pop ecx
00000583  5A                pop edx
00000584  5E                pop esi
00000585  5F                pop edi
00000586  83C404            add esp,byte +0x4
00000589  5D                pop ebp
0000058A  CF                iret
0000058B  A1C06C00C0        mov eax,[0xc0006cc0]
00000590  C3                ret
00000591  55                push ebp
00000592  54                push esp
00000593  57                push edi
00000594  56                push esi
00000595  52                push edx
00000596  51                push ecx
00000597  53                push ebx
00000598  50                push eax
00000599  E8A6FDFFFF        call 0x344
0000059E  58                pop eax
0000059F  5B                pop ebx
000005A0  59                pop ecx
000005A1  5A                pop edx
000005A2  5E                pop esi
000005A3  5F                pop edi
000005A4  83C404            add esp,byte +0x4
000005A7  5D                pop ebp
000005A8  CF                iret
000005A9  55                push ebp
000005AA  54                push esp
000005AB  57                push edi
000005AC  56                push esi
000005AD  52                push edx
000005AE  51                push ecx
000005AF  53                push ebx
000005B0  50                push eax
000005B1  E892FDFFFF        call 0x348
000005B6  58                pop eax
000005B7  5B                pop ebx
000005B8  59                pop ecx
000005B9  5A                pop edx
000005BA  5E                pop esi
000005BB  5F                pop edi
000005BC  83C404            add esp,byte +0x4
000005BF  5D                pop ebp
000005C0  CF                iret
000005C1  55                push ebp
000005C2  54                push esp
000005C3  57                push edi
000005C4  56                push esi
000005C5  52                push edx
000005C6  51                push ecx
000005C7  53                push ebx
000005C8  50                push eax
000005C9  E87EFDFFFF        call 0x34c
000005CE  58                pop eax
000005CF  5B                pop ebx
000005D0  59                pop ecx
000005D1  5A                pop edx
000005D2  5E                pop esi
000005D3  5F                pop edi
000005D4  83C404            add esp,byte +0x4
000005D7  5D                pop ebp
000005D8  CF                iret
000005D9  55                push ebp
000005DA  54                push esp
000005DB  57                push edi
000005DC  56                push esi
000005DD  52                push edx
000005DE  51                push ecx
000005DF  53                push ebx
000005E0  50                push eax
000005E1  E86AFDFFFF        call 0x350
000005E6  58                pop eax
000005E7  5B                pop ebx
000005E8  59                pop ecx
000005E9  5A                pop edx
000005EA  5E                pop esi
000005EB  5F                pop edi
000005EC  83C404            add esp,byte +0x4
000005EF  5D                pop ebp
000005F0  CF                iret
000005F1  55                push ebp
000005F2  54                push esp
000005F3  57                push edi
000005F4  56                push esi
000005F5  52                push edx
000005F6  51                push ecx
000005F7  53                push ebx
000005F8  50                push eax
000005F9  E856FDFFFF        call 0x354
000005FE  58                pop eax
000005FF  5B                pop ebx
00000600  59                pop ecx
00000601  5A                pop edx
00000602  5E                pop esi
00000603  5F                pop edi
00000604  83C404            add esp,byte +0x4
00000607  5D                pop ebp
00000608  CF                iret
00000609  8F05C06C00C0      pop dword [dword 0xc0006cc0]
0000060F  55                push ebp
00000610  54                push esp
00000611  57                push edi
00000612  56                push esi
00000613  52                push edx
00000614  51                push ecx
00000615  53                push ebx
00000616  50                push eax
00000617  E83CFDFFFF        call 0x358
0000061C  58                pop eax
0000061D  5B                pop ebx
0000061E  59                pop ecx
0000061F  5A                pop edx
00000620  5E                pop esi
00000621  5F                pop edi
00000622  83C404            add esp,byte +0x4
00000625  5D                pop ebp
00000626  CF                iret
00000627  55                push ebp
00000628  54                push esp
00000629  57                push edi
0000062A  56                push esi
0000062B  52                push edx
0000062C  51                push ecx
0000062D  53                push ebx
0000062E  50                push eax
0000062F  E828FDFFFF        call 0x35c
00000634  58                pop eax
00000635  5B                pop ebx
00000636  59                pop ecx
00000637  5A                pop edx
00000638  5E                pop esi
00000639  5F                pop edi
0000063A  83C404            add esp,byte +0x4
0000063D  5D                pop ebp
0000063E  CF                iret
0000063F  55                push ebp
00000640  54                push esp
00000641  57                push edi
00000642  56                push esi
00000643  52                push edx
00000644  51                push ecx
00000645  53                push ebx
00000646  50                push eax
00000647  E814FDFFFF        call 0x360
0000064C  58                pop eax
0000064D  5B                pop ebx
0000064E  59                pop ecx
0000064F  5A                pop edx
00000650  5E                pop esi
00000651  5F                pop edi
00000652  83C404            add esp,byte +0x4
00000655  5D                pop ebp
00000656  CF                iret
00000657  8F05C06C00C0      pop dword [dword 0xc0006cc0]
0000065D  55                push ebp
0000065E  54                push esp
0000065F  57                push edi
00000660  56                push esi
00000661  52                push edx
00000662  51                push ecx
00000663  53                push ebx
00000664  50                push eax
00000665  E8FAFCFFFF        call 0x364
0000066A  58                pop eax
0000066B  5B                pop ebx
0000066C  59                pop ecx
0000066D  5A                pop edx
0000066E  5E                pop esi
0000066F  5F                pop edi
00000670  83C404            add esp,byte +0x4
00000673  5D                pop ebp
00000674  CF                iret
00000675  55                push ebp
00000676  54                push esp
00000677  57                push edi
00000678  56                push esi
00000679  52                push edx
0000067A  51                push ecx
0000067B  53                push ebx
0000067C  50                push eax
0000067D  E8E6FCFFFF        call 0x368
00000682  58                pop eax
00000683  5B                pop ebx
00000684  59                pop ecx
00000685  5A                pop edx
00000686  5E                pop esi
00000687  5F                pop edi
00000688  83C404            add esp,byte +0x4
0000068B  5D                pop ebp
0000068C  CF                iret
0000068D  8F05C06C00C0      pop dword [dword 0xc0006cc0]
00000693  55                push ebp
00000694  54                push esp
00000695  57                push edi
00000696  56                push esi
00000697  52                push edx
00000698  51                push ecx
00000699  53                push ebx
0000069A  50                push eax
0000069B  E8CCFCFFFF        call 0x36c
000006A0  58                pop eax
000006A1  5B                pop ebx
000006A2  59                pop ecx
000006A3  5A                pop edx
000006A4  5E                pop esi
000006A5  5F                pop edi
000006A6  83C404            add esp,byte +0x4
000006A9  5D                pop ebp
000006AA  CF                iret
000006AB  8F05C06C00C0      pop dword [dword 0xc0006cc0]
000006B1  55                push ebp
000006B2  54                push esp
000006B3  57                push edi
000006B4  56                push esi
000006B5  52                push edx
000006B6  51                push ecx
000006B7  53                push ebx
000006B8  50                push eax
000006B9  E8B2FCFFFF        call 0x370
000006BE  58                pop eax
000006BF  5B                pop ebx
000006C0  59                pop ecx
000006C1  5A                pop edx
000006C2  5E                pop esi
000006C3  5F                pop edi
000006C4  83C404            add esp,byte +0x4
000006C7  5D                pop ebp
000006C8  CF                iret
000006C9  8F05C06C00C0      pop dword [dword 0xc0006cc0]
000006CF  55                push ebp
000006D0  54                push esp
000006D1  57                push edi
000006D2  56                push esi
000006D3  52                push edx
000006D4  51                push ecx
000006D5  53                push ebx
000006D6  50                push eax
000006D7  E898FCFFFF        call 0x374
000006DC  58                pop eax
000006DD  5B                pop ebx
000006DE  59                pop ecx
000006DF  5A                pop edx
000006E0  5E                pop esi
000006E1  5F                pop edi
000006E2  83C404            add esp,byte +0x4
000006E5  5D                pop ebp
000006E6  CF                iret
000006E7  8F05C06C00C0      pop dword [dword 0xc0006cc0]
000006ED  55                push ebp
000006EE  54                push esp
000006EF  57                push edi
000006F0  56                push esi
000006F1  52                push edx
000006F2  51                push ecx
000006F3  53                push ebx
000006F4  50                push eax
000006F5  E882FCFFFF        call 0x37c
000006FA  58                pop eax
000006FB  5B                pop ebx
000006FC  59                pop ecx
000006FD  5A                pop edx
000006FE  5E                pop esi
000006FF  5F                pop edi
00000700  83C404            add esp,byte +0x4
00000703  5D                pop ebp
00000704  CF                iret
00000705  8F05C06C00C0      pop dword [dword 0xc0006cc0]
0000070B  8F05C06C00C0      pop dword [dword 0xc0006cc0]
00000711  55                push ebp
00000712  54                push esp
00000713  57                push edi
00000714  56                push esi
00000715  52                push edx
00000716  51                push ecx
00000717  53                push ebx
00000718  50                push eax
00000719  E8EEFAFFFF        call 0x20c
0000071E  58                pop eax
0000071F  5B                pop ebx
00000720  59                pop ecx
00000721  5A                pop edx
00000722  5E                pop esi
00000723  5F                pop edi
00000724  83C404            add esp,byte +0x4
00000727  5D                pop ebp
00000728  CF                iret
00000729  55                push ebp
0000072A  54                push esp
0000072B  57                push edi
0000072C  56                push esi
0000072D  52                push edx
0000072E  51                push ecx
0000072F  53                push ebx
00000730  50                push eax
00000731  E842FCFFFF        call 0x378
00000736  58                pop eax
00000737  5B                pop ebx
00000738  59                pop ecx
00000739  5A                pop edx
0000073A  5E                pop esi
0000073B  5F                pop edi
0000073C  83C404            add esp,byte +0x4
0000073F  5D                pop ebp
00000740  CF                iret
00000741  6690              xchg ax,ax
00000743  6690              xchg ax,ax
00000745  6690              xchg ax,ax
00000747  6690              xchg ax,ax
00000749  6690              xchg ax,ax
0000074B  6690              xchg ax,ax
0000074D  6690              xchg ax,ax
0000074F  90                nop
00000750  56                push esi
00000751  50                push eax
00000752  89C1              mov ecx,eax
00000754  8D742404          lea esi,[esp+0x4]
00000758  FD                std
00000759  E30B              jecxz 0x766
0000075B  83C604            add esi,byte +0x4
0000075E  8B06              mov eax,[esi]
00000760  66894602          mov [esi+0x2],ax
00000764  EBF3              jmp short 0x759
00000766  FC                cld
00000767  C9                leave
00000768  C3                ret
00000769  6690              xchg ax,ax
0000076B  6690              xchg ax,ax
0000076D  6690              xchg ax,ax
0000076F  90                nop
00000770  FA                cli
00000771  BBC87000C0        mov ebx,0xc00070c8
00000776  8B4314            mov eax,[ebx+0x14]
00000779  8B4B1C            mov ecx,[ebx+0x1c]
0000077C  8B5320            mov edx,[ebx+0x20]
0000077F  8B7324            mov esi,[ebx+0x24]
00000782  8B7B28            mov edi,[ebx+0x28]
00000785  8B6B2C            mov ebp,[ebx+0x2c]
00000788  8B5B18            mov ebx,[ebx+0x18]
0000078B  CF                iret
0000078C  8B5C2404          mov ebx,[esp+0x4]
00000790  C705C60700C09C07  mov dword [dword 0xc00007c6],0xc000079c
         -00C0
0000079A  EB01              jmp short 0x79d
0000079C  CF                iret
0000079D  8B4314            mov eax,[ebx+0x14]
000007A0  8B4B1C            mov ecx,[ebx+0x1c]
000007A3  8B5320            mov edx,[ebx+0x20]
000007A6  8B7324            mov esi,[ebx+0x24]
000007A9  8B7B28            mov edi,[ebx+0x28]
000007AC  8B6B2C            mov ebp,[ebx+0x2c]
000007AF  FF33              push dword [ebx]
000007B1  FF7304            push dword [ebx+0x4]
000007B4  FF7308            push dword [ebx+0x8]
000007B7  FF730C            push dword [ebx+0xc]
000007BA  FF7310            push dword [ebx+0x10]
000007BD  8B5B18            mov ebx,[ebx+0x18]
000007C0  FF25C60700C0      jmp [dword 0xc00007c6]
000007C6  0000              add [eax],al
000007C8  0000              add [eax],al
000007CA  6690              xchg ax,ax
000007CC  6690              xchg ax,ax
000007CE  6690              xchg ax,ax
000007D0  6690              xchg ax,ax
000007D2  6690              xchg ax,ax
000007D4  6690              xchg ax,ax
000007D6  6690              xchg ax,ax
000007D8  6690              xchg ax,ax
000007DA  6690              xchg ax,ax
000007DC  6690              xchg ax,ax
000007DE  6690              xchg ax,ax
000007E0  6690              xchg ax,ax
000007E2  6690              xchg ax,ax
000007E4  6690              xchg ax,ax
000007E6  6690              xchg ax,ax
000007E8  6690              xchg ax,ax
000007EA  6690              xchg ax,ax
000007EC  6690              xchg ax,ax
000007EE  6690              xchg ax,ax
000007F0  6690              xchg ax,ax
000007F2  6690              xchg ax,ax
000007F4  6690              xchg ax,ax
000007F6  6690              xchg ax,ax
000007F8  6690              xchg ax,ax
000007FA  6690              xchg ax,ax
000007FC  6690              xchg ax,ax
000007FE  6690              xchg ax,ax
00000800  6690              xchg ax,ax
00000802  6690              xchg ax,ax
00000804  6690              xchg ax,ax
00000806  6690              xchg ax,ax
00000808  6690              xchg ax,ax
0000080A  6690              xchg ax,ax
0000080C  6690              xchg ax,ax
0000080E  6690              xchg ax,ax
00000810  6690              xchg ax,ax
00000812  6690              xchg ax,ax
00000814  6690              xchg ax,ax
00000816  6690              xchg ax,ax
00000818  6690              xchg ax,ax
0000081A  6690              xchg ax,ax
0000081C  6690              xchg ax,ax
0000081E  6690              xchg ax,ax
00000820  6690              xchg ax,ax
00000822  6690              xchg ax,ax
00000824  6690              xchg ax,ax
00000826  6690              xchg ax,ax
00000828  6690              xchg ax,ax
0000082A  6690              xchg ax,ax
0000082C  6690              xchg ax,ax
0000082E  6690              xchg ax,ax
00000830  6690              xchg ax,ax
00000832  6690              xchg ax,ax
00000834  6690              xchg ax,ax
00000836  6690              xchg ax,ax
00000838  6690              xchg ax,ax
0000083A  6690              xchg ax,ax
0000083C  6690              xchg ax,ax
0000083E  6690              xchg ax,ax
00000840  6690              xchg ax,ax
00000842  6690              xchg ax,ax
00000844  6690              xchg ax,ax
00000846  6690              xchg ax,ax
00000848  6690              xchg ax,ax
0000084A  6690              xchg ax,ax
0000084C  6690              xchg ax,ax
0000084E  6690              xchg ax,ax
00000850  6690              xchg ax,ax
00000852  6690              xchg ax,ax
00000854  6690              xchg ax,ax
00000856  6690              xchg ax,ax
00000858  6690              xchg ax,ax
0000085A  6690              xchg ax,ax
0000085C  6690              xchg ax,ax
0000085E  6690              xchg ax,ax
00000860  6690              xchg ax,ax
00000862  6690              xchg ax,ax
00000864  6690              xchg ax,ax
00000866  6690              xchg ax,ax
00000868  6690              xchg ax,ax
0000086A  6690              xchg ax,ax
0000086C  6690              xchg ax,ax
0000086E  6690              xchg ax,ax
00000870  6690              xchg ax,ax
00000872  6690              xchg ax,ax
00000874  6690              xchg ax,ax
00000876  6690              xchg ax,ax
00000878  6690              xchg ax,ax
0000087A  6690              xchg ax,ax
0000087C  6690              xchg ax,ax
0000087E  6690              xchg ax,ax
00000880  6690              xchg ax,ax
00000882  6690              xchg ax,ax
00000884  6690              xchg ax,ax
00000886  6690              xchg ax,ax
00000888  6690              xchg ax,ax
0000088A  6690              xchg ax,ax
0000088C  6690              xchg ax,ax
0000088E  6690              xchg ax,ax
00000890  6690              xchg ax,ax
00000892  6690              xchg ax,ax
00000894  6690              xchg ax,ax
00000896  6690              xchg ax,ax
00000898  6690              xchg ax,ax
0000089A  6690              xchg ax,ax
0000089C  6690              xchg ax,ax
0000089E  6690              xchg ax,ax
000008A0  6690              xchg ax,ax
000008A2  6690              xchg ax,ax
000008A4  6690              xchg ax,ax
000008A6  6690              xchg ax,ax
000008A8  6690              xchg ax,ax
000008AA  6690              xchg ax,ax
000008AC  6690              xchg ax,ax
000008AE  6690              xchg ax,ax
000008B0  6690              xchg ax,ax
000008B2  6690              xchg ax,ax
000008B4  6690              xchg ax,ax
000008B6  6690              xchg ax,ax
000008B8  6690              xchg ax,ax
000008BA  6690              xchg ax,ax
000008BC  6690              xchg ax,ax
000008BE  6690              xchg ax,ax
000008C0  6690              xchg ax,ax
000008C2  6690              xchg ax,ax
000008C4  6690              xchg ax,ax
000008C6  6690              xchg ax,ax
000008C8  6690              xchg ax,ax
000008CA  6690              xchg ax,ax
000008CC  6690              xchg ax,ax
000008CE  6690              xchg ax,ax
000008D0  6690              xchg ax,ax
000008D2  6690              xchg ax,ax
000008D4  6690              xchg ax,ax
000008D6  6690              xchg ax,ax
000008D8  6690              xchg ax,ax
000008DA  6690              xchg ax,ax
000008DC  6690              xchg ax,ax
000008DE  6690              xchg ax,ax
000008E0  6690              xchg ax,ax
000008E2  6690              xchg ax,ax
000008E4  6690              xchg ax,ax
000008E6  6690              xchg ax,ax
000008E8  6690              xchg ax,ax
000008EA  6690              xchg ax,ax
000008EC  6690              xchg ax,ax
000008EE  6690              xchg ax,ax
000008F0  6690              xchg ax,ax
000008F2  6690              xchg ax,ax
000008F4  6690              xchg ax,ax
000008F6  6690              xchg ax,ax
000008F8  6690              xchg ax,ax
000008FA  6690              xchg ax,ax
000008FC  6690              xchg ax,ax
000008FE  6690              xchg ax,ax
00000900  6690              xchg ax,ax
00000902  6690              xchg ax,ax
00000904  6690              xchg ax,ax
00000906  6690              xchg ax,ax
00000908  6690              xchg ax,ax
0000090A  6690              xchg ax,ax
0000090C  6690              xchg ax,ax
0000090E  6690              xchg ax,ax
00000910  6690              xchg ax,ax
00000912  6690              xchg ax,ax
00000914  6690              xchg ax,ax
00000916  6690              xchg ax,ax
00000918  6690              xchg ax,ax
0000091A  6690              xchg ax,ax
0000091C  6690              xchg ax,ax
0000091E  6690              xchg ax,ax
00000920  6690              xchg ax,ax
00000922  6690              xchg ax,ax
00000924  6690              xchg ax,ax
00000926  6690              xchg ax,ax
00000928  6690              xchg ax,ax
0000092A  6690              xchg ax,ax
0000092C  6690              xchg ax,ax
0000092E  6690              xchg ax,ax
00000930  6690              xchg ax,ax
00000932  6690              xchg ax,ax
00000934  6690              xchg ax,ax
00000936  6690              xchg ax,ax
00000938  6690              xchg ax,ax
0000093A  6690              xchg ax,ax
0000093C  6690              xchg ax,ax
0000093E  6690              xchg ax,ax
00000940  6690              xchg ax,ax
00000942  6690              xchg ax,ax
00000944  6690              xchg ax,ax
00000946  6690              xchg ax,ax
00000948  6690              xchg ax,ax
0000094A  6690              xchg ax,ax
0000094C  6690              xchg ax,ax
0000094E  6690              xchg ax,ax
00000950  6690              xchg ax,ax
00000952  6690              xchg ax,ax
00000954  6690              xchg ax,ax
00000956  6690              xchg ax,ax
00000958  6690              xchg ax,ax
0000095A  6690              xchg ax,ax
0000095C  6690              xchg ax,ax
0000095E  6690              xchg ax,ax
00000960  6690              xchg ax,ax
00000962  6690              xchg ax,ax
00000964  6690              xchg ax,ax
00000966  6690              xchg ax,ax
00000968  6690              xchg ax,ax
0000096A  6690              xchg ax,ax
0000096C  6690              xchg ax,ax
0000096E  6690              xchg ax,ax
00000970  6690              xchg ax,ax
00000972  6690              xchg ax,ax
00000974  6690              xchg ax,ax
00000976  6690              xchg ax,ax
00000978  6690              xchg ax,ax
0000097A  6690              xchg ax,ax
0000097C  6690              xchg ax,ax
0000097E  6690              xchg ax,ax
00000980  6690              xchg ax,ax
00000982  6690              xchg ax,ax
00000984  6690              xchg ax,ax
00000986  6690              xchg ax,ax
00000988  6690              xchg ax,ax
0000098A  6690              xchg ax,ax
0000098C  6690              xchg ax,ax
0000098E  6690              xchg ax,ax
00000990  6690              xchg ax,ax
00000992  6690              xchg ax,ax
00000994  6690              xchg ax,ax
00000996  6690              xchg ax,ax
00000998  6690              xchg ax,ax
0000099A  6690              xchg ax,ax
0000099C  6690              xchg ax,ax
0000099E  6690              xchg ax,ax
000009A0  6690              xchg ax,ax
000009A2  6690              xchg ax,ax
000009A4  6690              xchg ax,ax
000009A6  6690              xchg ax,ax
000009A8  6690              xchg ax,ax
000009AA  6690              xchg ax,ax
000009AC  6690              xchg ax,ax
000009AE  6690              xchg ax,ax
000009B0  6690              xchg ax,ax
000009B2  6690              xchg ax,ax
000009B4  6690              xchg ax,ax
000009B6  6690              xchg ax,ax
000009B8  6690              xchg ax,ax
000009BA  6690              xchg ax,ax
000009BC  6690              xchg ax,ax
000009BE  6690              xchg ax,ax
000009C0  6690              xchg ax,ax
000009C2  6690              xchg ax,ax
000009C4  6690              xchg ax,ax
000009C6  6690              xchg ax,ax
000009C8  6690              xchg ax,ax
000009CA  6690              xchg ax,ax
000009CC  6690              xchg ax,ax
000009CE  6690              xchg ax,ax
000009D0  6690              xchg ax,ax
000009D2  6690              xchg ax,ax
000009D4  6690              xchg ax,ax
000009D6  6690              xchg ax,ax
000009D8  6690              xchg ax,ax
000009DA  6690              xchg ax,ax
000009DC  6690              xchg ax,ax
000009DE  6690              xchg ax,ax
000009E0  6690              xchg ax,ax
000009E2  6690              xchg ax,ax
000009E4  6690              xchg ax,ax
000009E6  6690              xchg ax,ax
000009E8  6690              xchg ax,ax
000009EA  6690              xchg ax,ax
000009EC  6690              xchg ax,ax
000009EE  6690              xchg ax,ax
000009F0  6690              xchg ax,ax
000009F2  6690              xchg ax,ax
000009F4  6690              xchg ax,ax
000009F6  6690              xchg ax,ax
000009F8  6690              xchg ax,ax
000009FA  6690              xchg ax,ax
000009FC  6690              xchg ax,ax
000009FE  6690              xchg ax,ax
00000A00  6690              xchg ax,ax
00000A02  6690              xchg ax,ax
00000A04  6690              xchg ax,ax
00000A06  6690              xchg ax,ax
00000A08  6690              xchg ax,ax
00000A0A  6690              xchg ax,ax
00000A0C  6690              xchg ax,ax
00000A0E  6690              xchg ax,ax
00000A10  6690              xchg ax,ax
00000A12  6690              xchg ax,ax
00000A14  6690              xchg ax,ax
00000A16  6690              xchg ax,ax
00000A18  6690              xchg ax,ax
00000A1A  6690              xchg ax,ax
00000A1C  6690              xchg ax,ax
00000A1E  6690              xchg ax,ax
00000A20  6690              xchg ax,ax
00000A22  6690              xchg ax,ax
00000A24  6690              xchg ax,ax
00000A26  6690              xchg ax,ax
00000A28  6690              xchg ax,ax
00000A2A  6690              xchg ax,ax
00000A2C  6690              xchg ax,ax
00000A2E  6690              xchg ax,ax
00000A30  6690              xchg ax,ax
00000A32  6690              xchg ax,ax
00000A34  6690              xchg ax,ax
00000A36  6690              xchg ax,ax
00000A38  6690              xchg ax,ax
00000A3A  6690              xchg ax,ax
00000A3C  6690              xchg ax,ax
00000A3E  6690              xchg ax,ax
00000A40  6690              xchg ax,ax
00000A42  6690              xchg ax,ax
00000A44  6690              xchg ax,ax
00000A46  6690              xchg ax,ax
00000A48  6690              xchg ax,ax
00000A4A  6690              xchg ax,ax
00000A4C  6690              xchg ax,ax
00000A4E  6690              xchg ax,ax
00000A50  6690              xchg ax,ax
00000A52  6690              xchg ax,ax
00000A54  6690              xchg ax,ax
00000A56  6690              xchg ax,ax
00000A58  6690              xchg ax,ax
00000A5A  6690              xchg ax,ax
00000A5C  6690              xchg ax,ax
00000A5E  6690              xchg ax,ax
00000A60  6690              xchg ax,ax
00000A62  6690              xchg ax,ax
00000A64  6690              xchg ax,ax
00000A66  6690              xchg ax,ax
00000A68  6690              xchg ax,ax
00000A6A  6690              xchg ax,ax
00000A6C  6690              xchg ax,ax
00000A6E  6690              xchg ax,ax
00000A70  6690              xchg ax,ax
00000A72  6690              xchg ax,ax
00000A74  6690              xchg ax,ax
00000A76  6690              xchg ax,ax
00000A78  6690              xchg ax,ax
00000A7A  6690              xchg ax,ax
00000A7C  6690              xchg ax,ax
00000A7E  6690              xchg ax,ax
00000A80  6690              xchg ax,ax
00000A82  6690              xchg ax,ax
00000A84  6690              xchg ax,ax
00000A86  6690              xchg ax,ax
00000A88  6690              xchg ax,ax
00000A8A  6690              xchg ax,ax
00000A8C  6690              xchg ax,ax
00000A8E  6690              xchg ax,ax
00000A90  6690              xchg ax,ax
00000A92  6690              xchg ax,ax
00000A94  6690              xchg ax,ax
00000A96  6690              xchg ax,ax
00000A98  6690              xchg ax,ax
00000A9A  6690              xchg ax,ax
00000A9C  6690              xchg ax,ax
00000A9E  6690              xchg ax,ax
00000AA0  6690              xchg ax,ax
00000AA2  6690              xchg ax,ax
00000AA4  6690              xchg ax,ax
00000AA6  6690              xchg ax,ax
00000AA8  6690              xchg ax,ax
00000AAA  6690              xchg ax,ax
00000AAC  6690              xchg ax,ax
00000AAE  6690              xchg ax,ax
00000AB0  6690              xchg ax,ax
00000AB2  6690              xchg ax,ax
00000AB4  6690              xchg ax,ax
00000AB6  6690              xchg ax,ax
00000AB8  6690              xchg ax,ax
00000ABA  6690              xchg ax,ax
00000ABC  6690              xchg ax,ax
00000ABE  6690              xchg ax,ax
00000AC0  6690              xchg ax,ax
00000AC2  6690              xchg ax,ax
00000AC4  6690              xchg ax,ax
00000AC6  6690              xchg ax,ax
00000AC8  6690              xchg ax,ax
00000ACA  6690              xchg ax,ax
00000ACC  6690              xchg ax,ax
00000ACE  6690              xchg ax,ax
00000AD0  6690              xchg ax,ax
00000AD2  6690              xchg ax,ax
00000AD4  6690              xchg ax,ax
00000AD6  6690              xchg ax,ax
00000AD8  6690              xchg ax,ax
00000ADA  6690              xchg ax,ax
00000ADC  6690              xchg ax,ax
00000ADE  6690              xchg ax,ax
00000AE0  6690              xchg ax,ax
00000AE2  6690              xchg ax,ax
00000AE4  6690              xchg ax,ax
00000AE6  6690              xchg ax,ax
00000AE8  6690              xchg ax,ax
00000AEA  6690              xchg ax,ax
00000AEC  6690              xchg ax,ax
00000AEE  6690              xchg ax,ax
00000AF0  6690              xchg ax,ax
00000AF2  6690              xchg ax,ax
00000AF4  6690              xchg ax,ax
00000AF6  6690              xchg ax,ax
00000AF8  6690              xchg ax,ax
00000AFA  6690              xchg ax,ax
00000AFC  6690              xchg ax,ax
00000AFE  6690              xchg ax,ax
00000B00  6690              xchg ax,ax
00000B02  6690              xchg ax,ax
00000B04  6690              xchg ax,ax
00000B06  6690              xchg ax,ax
00000B08  6690              xchg ax,ax
00000B0A  6690              xchg ax,ax
00000B0C  6690              xchg ax,ax
00000B0E  6690              xchg ax,ax
00000B10  6690              xchg ax,ax
00000B12  6690              xchg ax,ax
00000B14  6690              xchg ax,ax
00000B16  6690              xchg ax,ax
00000B18  6690              xchg ax,ax
00000B1A  6690              xchg ax,ax
00000B1C  6690              xchg ax,ax
00000B1E  6690              xchg ax,ax
00000B20  6690              xchg ax,ax
00000B22  6690              xchg ax,ax
00000B24  6690              xchg ax,ax
00000B26  6690              xchg ax,ax
00000B28  6690              xchg ax,ax
00000B2A  6690              xchg ax,ax
00000B2C  6690              xchg ax,ax
00000B2E  6690              xchg ax,ax
00000B30  6690              xchg ax,ax
00000B32  6690              xchg ax,ax
00000B34  6690              xchg ax,ax
00000B36  6690              xchg ax,ax
00000B38  6690              xchg ax,ax
00000B3A  6690              xchg ax,ax
00000B3C  6690              xchg ax,ax
00000B3E  6690              xchg ax,ax
00000B40  6690              xchg ax,ax
00000B42  6690              xchg ax,ax
00000B44  6690              xchg ax,ax
00000B46  6690              xchg ax,ax
00000B48  6690              xchg ax,ax
00000B4A  6690              xchg ax,ax
00000B4C  6690              xchg ax,ax
00000B4E  6690              xchg ax,ax
00000B50  6690              xchg ax,ax
00000B52  6690              xchg ax,ax
00000B54  6690              xchg ax,ax
00000B56  6690              xchg ax,ax
00000B58  6690              xchg ax,ax
00000B5A  6690              xchg ax,ax
00000B5C  6690              xchg ax,ax
00000B5E  6690              xchg ax,ax
00000B60  6690              xchg ax,ax
00000B62  6690              xchg ax,ax
00000B64  6690              xchg ax,ax
00000B66  6690              xchg ax,ax
00000B68  6690              xchg ax,ax
00000B6A  6690              xchg ax,ax
00000B6C  6690              xchg ax,ax
00000B6E  6690              xchg ax,ax
00000B70  6690              xchg ax,ax
00000B72  6690              xchg ax,ax
00000B74  6690              xchg ax,ax
00000B76  6690              xchg ax,ax
00000B78  6690              xchg ax,ax
00000B7A  6690              xchg ax,ax
00000B7C  6690              xchg ax,ax
00000B7E  6690              xchg ax,ax
00000B80  6690              xchg ax,ax
00000B82  6690              xchg ax,ax
00000B84  6690              xchg ax,ax
00000B86  6690              xchg ax,ax
00000B88  6690              xchg ax,ax
00000B8A  6690              xchg ax,ax
00000B8C  6690              xchg ax,ax
00000B8E  6690              xchg ax,ax
00000B90  6690              xchg ax,ax
00000B92  6690              xchg ax,ax
00000B94  6690              xchg ax,ax
00000B96  6690              xchg ax,ax
00000B98  6690              xchg ax,ax
00000B9A  6690              xchg ax,ax
00000B9C  6690              xchg ax,ax
00000B9E  6690              xchg ax,ax
00000BA0  6690              xchg ax,ax
00000BA2  6690              xchg ax,ax
00000BA4  6690              xchg ax,ax
00000BA6  6690              xchg ax,ax
00000BA8  6690              xchg ax,ax
00000BAA  6690              xchg ax,ax
00000BAC  6690              xchg ax,ax
00000BAE  6690              xchg ax,ax
00000BB0  6690              xchg ax,ax
00000BB2  6690              xchg ax,ax
00000BB4  6690              xchg ax,ax
00000BB6  6690              xchg ax,ax
00000BB8  6690              xchg ax,ax
00000BBA  6690              xchg ax,ax
00000BBC  6690              xchg ax,ax
00000BBE  6690              xchg ax,ax
00000BC0  6690              xchg ax,ax
00000BC2  6690              xchg ax,ax
00000BC4  6690              xchg ax,ax
00000BC6  6690              xchg ax,ax
00000BC8  6690              xchg ax,ax
00000BCA  6690              xchg ax,ax
00000BCC  6690              xchg ax,ax
00000BCE  6690              xchg ax,ax
00000BD0  6690              xchg ax,ax
00000BD2  6690              xchg ax,ax
00000BD4  6690              xchg ax,ax
00000BD6  6690              xchg ax,ax
00000BD8  6690              xchg ax,ax
00000BDA  6690              xchg ax,ax
00000BDC  6690              xchg ax,ax
00000BDE  6690              xchg ax,ax
00000BE0  6690              xchg ax,ax
00000BE2  6690              xchg ax,ax
00000BE4  6690              xchg ax,ax
00000BE6  6690              xchg ax,ax
00000BE8  6690              xchg ax,ax
00000BEA  6690              xchg ax,ax
00000BEC  6690              xchg ax,ax
00000BEE  6690              xchg ax,ax
00000BF0  6690              xchg ax,ax
00000BF2  6690              xchg ax,ax
00000BF4  6690              xchg ax,ax
00000BF6  6690              xchg ax,ax
00000BF8  6690              xchg ax,ax
00000BFA  6690              xchg ax,ax
00000BFC  6690              xchg ax,ax
00000BFE  6690              xchg ax,ax
00000C00  6690              xchg ax,ax
00000C02  6690              xchg ax,ax
00000C04  6690              xchg ax,ax
00000C06  6690              xchg ax,ax
00000C08  6690              xchg ax,ax
00000C0A  6690              xchg ax,ax
00000C0C  6690              xchg ax,ax
00000C0E  6690              xchg ax,ax
00000C10  6690              xchg ax,ax
00000C12  6690              xchg ax,ax
00000C14  6690              xchg ax,ax
00000C16  6690              xchg ax,ax
00000C18  6690              xchg ax,ax
00000C1A  6690              xchg ax,ax
00000C1C  6690              xchg ax,ax
00000C1E  6690              xchg ax,ax
00000C20  6690              xchg ax,ax
00000C22  6690              xchg ax,ax
00000C24  6690              xchg ax,ax
00000C26  6690              xchg ax,ax
00000C28  6690              xchg ax,ax
00000C2A  6690              xchg ax,ax
00000C2C  6690              xchg ax,ax
00000C2E  6690              xchg ax,ax
00000C30  6690              xchg ax,ax
00000C32  6690              xchg ax,ax
00000C34  6690              xchg ax,ax
00000C36  6690              xchg ax,ax
00000C38  6690              xchg ax,ax
00000C3A  6690              xchg ax,ax
00000C3C  6690              xchg ax,ax
00000C3E  6690              xchg ax,ax
00000C40  6690              xchg ax,ax
00000C42  6690              xchg ax,ax
00000C44  6690              xchg ax,ax
00000C46  6690              xchg ax,ax
00000C48  6690              xchg ax,ax
00000C4A  6690              xchg ax,ax
00000C4C  6690              xchg ax,ax
00000C4E  6690              xchg ax,ax
00000C50  6690              xchg ax,ax
00000C52  6690              xchg ax,ax
00000C54  6690              xchg ax,ax
00000C56  6690              xchg ax,ax
00000C58  6690              xchg ax,ax
00000C5A  6690              xchg ax,ax
00000C5C  6690              xchg ax,ax
00000C5E  6690              xchg ax,ax
00000C60  6690              xchg ax,ax
00000C62  6690              xchg ax,ax
00000C64  6690              xchg ax,ax
00000C66  6690              xchg ax,ax
00000C68  6690              xchg ax,ax
00000C6A  6690              xchg ax,ax
00000C6C  6690              xchg ax,ax
00000C6E  6690              xchg ax,ax
00000C70  6690              xchg ax,ax
00000C72  6690              xchg ax,ax
00000C74  6690              xchg ax,ax
00000C76  6690              xchg ax,ax
00000C78  6690              xchg ax,ax
00000C7A  6690              xchg ax,ax
00000C7C  6690              xchg ax,ax
00000C7E  6690              xchg ax,ax
00000C80  6690              xchg ax,ax
00000C82  6690              xchg ax,ax
00000C84  6690              xchg ax,ax
00000C86  6690              xchg ax,ax
00000C88  6690              xchg ax,ax
00000C8A  6690              xchg ax,ax
00000C8C  6690              xchg ax,ax
00000C8E  6690              xchg ax,ax
00000C90  6690              xchg ax,ax
00000C92  6690              xchg ax,ax
00000C94  6690              xchg ax,ax
00000C96  6690              xchg ax,ax
00000C98  6690              xchg ax,ax
00000C9A  6690              xchg ax,ax
00000C9C  6690              xchg ax,ax
00000C9E  6690              xchg ax,ax
00000CA0  6690              xchg ax,ax
00000CA2  6690              xchg ax,ax
00000CA4  6690              xchg ax,ax
00000CA6  6690              xchg ax,ax
00000CA8  6690              xchg ax,ax
00000CAA  6690              xchg ax,ax
00000CAC  6690              xchg ax,ax
00000CAE  6690              xchg ax,ax
00000CB0  6690              xchg ax,ax
00000CB2  6690              xchg ax,ax
00000CB4  6690              xchg ax,ax
00000CB6  6690              xchg ax,ax
00000CB8  6690              xchg ax,ax
00000CBA  6690              xchg ax,ax
00000CBC  6690              xchg ax,ax
00000CBE  6690              xchg ax,ax
00000CC0  6690              xchg ax,ax
00000CC2  6690              xchg ax,ax
00000CC4  6690              xchg ax,ax
00000CC6  6690              xchg ax,ax
00000CC8  6690              xchg ax,ax
00000CCA  6690              xchg ax,ax
00000CCC  6690              xchg ax,ax
00000CCE  6690              xchg ax,ax
00000CD0  6690              xchg ax,ax
00000CD2  6690              xchg ax,ax
00000CD4  6690              xchg ax,ax
00000CD6  6690              xchg ax,ax
00000CD8  6690              xchg ax,ax
00000CDA  6690              xchg ax,ax
00000CDC  6690              xchg ax,ax
00000CDE  6690              xchg ax,ax
00000CE0  6690              xchg ax,ax
00000CE2  6690              xchg ax,ax
00000CE4  6690              xchg ax,ax
00000CE6  6690              xchg ax,ax
00000CE8  6690              xchg ax,ax
00000CEA  6690              xchg ax,ax
00000CEC  6690              xchg ax,ax
00000CEE  6690              xchg ax,ax
00000CF0  6690              xchg ax,ax
00000CF2  6690              xchg ax,ax
00000CF4  6690              xchg ax,ax
00000CF6  6690              xchg ax,ax
00000CF8  6690              xchg ax,ax
00000CFA  6690              xchg ax,ax
00000CFC  6690              xchg ax,ax
00000CFE  6690              xchg ax,ax
00000D00  6690              xchg ax,ax
00000D02  6690              xchg ax,ax
00000D04  6690              xchg ax,ax
00000D06  6690              xchg ax,ax
00000D08  6690              xchg ax,ax
00000D0A  6690              xchg ax,ax
00000D0C  6690              xchg ax,ax
00000D0E  6690              xchg ax,ax
00000D10  6690              xchg ax,ax
00000D12  6690              xchg ax,ax
00000D14  6690              xchg ax,ax
00000D16  6690              xchg ax,ax
00000D18  6690              xchg ax,ax
00000D1A  6690              xchg ax,ax
00000D1C  6690              xchg ax,ax
00000D1E  6690              xchg ax,ax
00000D20  6690              xchg ax,ax
00000D22  6690              xchg ax,ax
00000D24  6690              xchg ax,ax
00000D26  6690              xchg ax,ax
00000D28  6690              xchg ax,ax
00000D2A  6690              xchg ax,ax
00000D2C  6690              xchg ax,ax
00000D2E  6690              xchg ax,ax
00000D30  6690              xchg ax,ax
00000D32  6690              xchg ax,ax
00000D34  6690              xchg ax,ax
00000D36  6690              xchg ax,ax
00000D38  6690              xchg ax,ax
00000D3A  6690              xchg ax,ax
00000D3C  6690              xchg ax,ax
00000D3E  6690              xchg ax,ax
00000D40  6690              xchg ax,ax
00000D42  6690              xchg ax,ax
00000D44  6690              xchg ax,ax
00000D46  6690              xchg ax,ax
00000D48  6690              xchg ax,ax
00000D4A  6690              xchg ax,ax
00000D4C  6690              xchg ax,ax
00000D4E  6690              xchg ax,ax
00000D50  6690              xchg ax,ax
00000D52  6690              xchg ax,ax
00000D54  6690              xchg ax,ax
00000D56  6690              xchg ax,ax
00000D58  6690              xchg ax,ax
00000D5A  6690              xchg ax,ax
00000D5C  6690              xchg ax,ax
00000D5E  6690              xchg ax,ax
00000D60  6690              xchg ax,ax
00000D62  6690              xchg ax,ax
00000D64  6690              xchg ax,ax
00000D66  6690              xchg ax,ax
00000D68  6690              xchg ax,ax
00000D6A  6690              xchg ax,ax
00000D6C  6690              xchg ax,ax
00000D6E  6690              xchg ax,ax
00000D70  6690              xchg ax,ax
00000D72  6690              xchg ax,ax
00000D74  6690              xchg ax,ax
00000D76  6690              xchg ax,ax
00000D78  6690              xchg ax,ax
00000D7A  6690              xchg ax,ax
00000D7C  6690              xchg ax,ax
00000D7E  6690              xchg ax,ax
00000D80  6690              xchg ax,ax
00000D82  6690              xchg ax,ax
00000D84  6690              xchg ax,ax
00000D86  6690              xchg ax,ax
00000D88  6690              xchg ax,ax
00000D8A  6690              xchg ax,ax
00000D8C  6690              xchg ax,ax
00000D8E  6690              xchg ax,ax
00000D90  6690              xchg ax,ax
00000D92  6690              xchg ax,ax
00000D94  6690              xchg ax,ax
00000D96  6690              xchg ax,ax
00000D98  6690              xchg ax,ax
00000D9A  6690              xchg ax,ax
00000D9C  6690              xchg ax,ax
00000D9E  6690              xchg ax,ax
00000DA0  6690              xchg ax,ax
00000DA2  6690              xchg ax,ax
00000DA4  6690              xchg ax,ax
00000DA6  6690              xchg ax,ax
00000DA8  6690              xchg ax,ax
00000DAA  6690              xchg ax,ax
00000DAC  6690              xchg ax,ax
00000DAE  6690              xchg ax,ax
00000DB0  6690              xchg ax,ax
00000DB2  6690              xchg ax,ax
00000DB4  6690              xchg ax,ax
00000DB6  6690              xchg ax,ax
00000DB8  6690              xchg ax,ax
00000DBA  6690              xchg ax,ax
00000DBC  6690              xchg ax,ax
00000DBE  6690              xchg ax,ax
00000DC0  6690              xchg ax,ax
00000DC2  6690              xchg ax,ax
00000DC4  6690              xchg ax,ax
00000DC6  6690              xchg ax,ax
00000DC8  6690              xchg ax,ax
00000DCA  6690              xchg ax,ax
00000DCC  6690              xchg ax,ax
00000DCE  6690              xchg ax,ax
00000DD0  6690              xchg ax,ax
00000DD2  6690              xchg ax,ax
00000DD4  6690              xchg ax,ax
00000DD6  6690              xchg ax,ax
00000DD8  6690              xchg ax,ax
00000DDA  6690              xchg ax,ax
00000DDC  6690              xchg ax,ax
00000DDE  6690              xchg ax,ax
00000DE0  6690              xchg ax,ax
00000DE2  6690              xchg ax,ax
00000DE4  6690              xchg ax,ax
00000DE6  6690              xchg ax,ax
00000DE8  6690              xchg ax,ax
00000DEA  6690              xchg ax,ax
00000DEC  6690              xchg ax,ax
00000DEE  6690              xchg ax,ax
00000DF0  6690              xchg ax,ax
00000DF2  6690              xchg ax,ax
00000DF4  6690              xchg ax,ax
00000DF6  6690              xchg ax,ax
00000DF8  6690              xchg ax,ax
00000DFA  6690              xchg ax,ax
00000DFC  6690              xchg ax,ax
00000DFE  6690              xchg ax,ax
00000E00  6690              xchg ax,ax
00000E02  6690              xchg ax,ax
00000E04  6690              xchg ax,ax
00000E06  6690              xchg ax,ax
00000E08  6690              xchg ax,ax
00000E0A  6690              xchg ax,ax
00000E0C  6690              xchg ax,ax
00000E0E  6690              xchg ax,ax
00000E10  6690              xchg ax,ax
00000E12  6690              xchg ax,ax
00000E14  6690              xchg ax,ax
00000E16  6690              xchg ax,ax
00000E18  6690              xchg ax,ax
00000E1A  6690              xchg ax,ax
00000E1C  6690              xchg ax,ax
00000E1E  6690              xchg ax,ax
00000E20  6690              xchg ax,ax
00000E22  6690              xchg ax,ax
00000E24  6690              xchg ax,ax
00000E26  6690              xchg ax,ax
00000E28  6690              xchg ax,ax
00000E2A  6690              xchg ax,ax
00000E2C  6690              xchg ax,ax
00000E2E  6690              xchg ax,ax
00000E30  6690              xchg ax,ax
00000E32  6690              xchg ax,ax
00000E34  6690              xchg ax,ax
00000E36  6690              xchg ax,ax
00000E38  6690              xchg ax,ax
00000E3A  6690              xchg ax,ax
00000E3C  6690              xchg ax,ax
00000E3E  6690              xchg ax,ax
00000E40  6690              xchg ax,ax
00000E42  6690              xchg ax,ax
00000E44  6690              xchg ax,ax
00000E46  6690              xchg ax,ax
00000E48  6690              xchg ax,ax
00000E4A  6690              xchg ax,ax
00000E4C  6690              xchg ax,ax
00000E4E  6690              xchg ax,ax
00000E50  6690              xchg ax,ax
00000E52  6690              xchg ax,ax
00000E54  6690              xchg ax,ax
00000E56  6690              xchg ax,ax
00000E58  6690              xchg ax,ax
00000E5A  6690              xchg ax,ax
00000E5C  6690              xchg ax,ax
00000E5E  6690              xchg ax,ax
00000E60  6690              xchg ax,ax
00000E62  6690              xchg ax,ax
00000E64  6690              xchg ax,ax
00000E66  6690              xchg ax,ax
00000E68  6690              xchg ax,ax
00000E6A  6690              xchg ax,ax
00000E6C  6690              xchg ax,ax
00000E6E  6690              xchg ax,ax
00000E70  6690              xchg ax,ax
00000E72  6690              xchg ax,ax
00000E74  6690              xchg ax,ax
00000E76  6690              xchg ax,ax
00000E78  6690              xchg ax,ax
00000E7A  6690              xchg ax,ax
00000E7C  6690              xchg ax,ax
00000E7E  6690              xchg ax,ax
00000E80  6690              xchg ax,ax
00000E82  6690              xchg ax,ax
00000E84  6690              xchg ax,ax
00000E86  6690              xchg ax,ax
00000E88  6690              xchg ax,ax
00000E8A  6690              xchg ax,ax
00000E8C  6690              xchg ax,ax
00000E8E  6690              xchg ax,ax
00000E90  6690              xchg ax,ax
00000E92  6690              xchg ax,ax
00000E94  6690              xchg ax,ax
00000E96  6690              xchg ax,ax
00000E98  6690              xchg ax,ax
00000E9A  6690              xchg ax,ax
00000E9C  6690              xchg ax,ax
00000E9E  6690              xchg ax,ax
00000EA0  6690              xchg ax,ax
00000EA2  6690              xchg ax,ax
00000EA4  6690              xchg ax,ax
00000EA6  6690              xchg ax,ax
00000EA8  6690              xchg ax,ax
00000EAA  6690              xchg ax,ax
00000EAC  6690              xchg ax,ax
00000EAE  6690              xchg ax,ax
00000EB0  6690              xchg ax,ax
00000EB2  6690              xchg ax,ax
00000EB4  6690              xchg ax,ax
00000EB6  6690              xchg ax,ax
00000EB8  6690              xchg ax,ax
00000EBA  6690              xchg ax,ax
00000EBC  6690              xchg ax,ax
00000EBE  6690              xchg ax,ax
00000EC0  6690              xchg ax,ax
00000EC2  6690              xchg ax,ax
00000EC4  6690              xchg ax,ax
00000EC6  6690              xchg ax,ax
00000EC8  6690              xchg ax,ax
00000ECA  6690              xchg ax,ax
00000ECC  6690              xchg ax,ax
00000ECE  6690              xchg ax,ax
00000ED0  6690              xchg ax,ax
00000ED2  6690              xchg ax,ax
00000ED4  6690              xchg ax,ax
00000ED6  6690              xchg ax,ax
00000ED8  6690              xchg ax,ax
00000EDA  6690              xchg ax,ax
00000EDC  6690              xchg ax,ax
00000EDE  6690              xchg ax,ax
00000EE0  6690              xchg ax,ax
00000EE2  6690              xchg ax,ax
00000EE4  6690              xchg ax,ax
00000EE6  6690              xchg ax,ax
00000EE8  6690              xchg ax,ax
00000EEA  6690              xchg ax,ax
00000EEC  6690              xchg ax,ax
00000EEE  6690              xchg ax,ax
00000EF0  6690              xchg ax,ax
00000EF2  6690              xchg ax,ax
00000EF4  6690              xchg ax,ax
00000EF6  6690              xchg ax,ax
00000EF8  6690              xchg ax,ax
00000EFA  6690              xchg ax,ax
00000EFC  6690              xchg ax,ax
00000EFE  6690              xchg ax,ax
00000F00  6690              xchg ax,ax
00000F02  6690              xchg ax,ax
00000F04  6690              xchg ax,ax
00000F06  6690              xchg ax,ax
00000F08  6690              xchg ax,ax
00000F0A  6690              xchg ax,ax
00000F0C  6690              xchg ax,ax
00000F0E  6690              xchg ax,ax
00000F10  6690              xchg ax,ax
00000F12  6690              xchg ax,ax
00000F14  6690              xchg ax,ax
00000F16  6690              xchg ax,ax
00000F18  6690              xchg ax,ax
00000F1A  6690              xchg ax,ax
00000F1C  6690              xchg ax,ax
00000F1E  6690              xchg ax,ax
00000F20  6690              xchg ax,ax
00000F22  6690              xchg ax,ax
00000F24  6690              xchg ax,ax
00000F26  6690              xchg ax,ax
00000F28  6690              xchg ax,ax
00000F2A  6690              xchg ax,ax
00000F2C  6690              xchg ax,ax
00000F2E  6690              xchg ax,ax
00000F30  6690              xchg ax,ax
00000F32  6690              xchg ax,ax
00000F34  6690              xchg ax,ax
00000F36  6690              xchg ax,ax
00000F38  6690              xchg ax,ax
00000F3A  6690              xchg ax,ax
00000F3C  6690              xchg ax,ax
00000F3E  6690              xchg ax,ax
00000F40  6690              xchg ax,ax
00000F42  6690              xchg ax,ax
00000F44  6690              xchg ax,ax
00000F46  6690              xchg ax,ax
00000F48  6690              xchg ax,ax
00000F4A  6690              xchg ax,ax
00000F4C  6690              xchg ax,ax
00000F4E  6690              xchg ax,ax
00000F50  6690              xchg ax,ax
00000F52  6690              xchg ax,ax
00000F54  6690              xchg ax,ax
00000F56  6690              xchg ax,ax
00000F58  6690              xchg ax,ax
00000F5A  6690              xchg ax,ax
00000F5C  6690              xchg ax,ax
00000F5E  6690              xchg ax,ax
00000F60  6690              xchg ax,ax
00000F62  6690              xchg ax,ax
00000F64  6690              xchg ax,ax
00000F66  6690              xchg ax,ax
00000F68  6690              xchg ax,ax
00000F6A  6690              xchg ax,ax
00000F6C  6690              xchg ax,ax
00000F6E  6690              xchg ax,ax
00000F70  6690              xchg ax,ax
00000F72  6690              xchg ax,ax
00000F74  6690              xchg ax,ax
00000F76  6690              xchg ax,ax
00000F78  6690              xchg ax,ax
00000F7A  6690              xchg ax,ax
00000F7C  6690              xchg ax,ax
00000F7E  6690              xchg ax,ax
00000F80  6690              xchg ax,ax
00000F82  6690              xchg ax,ax
00000F84  6690              xchg ax,ax
00000F86  6690              xchg ax,ax
00000F88  6690              xchg ax,ax
00000F8A  6690              xchg ax,ax
00000F8C  6690              xchg ax,ax
00000F8E  6690              xchg ax,ax
00000F90  6690              xchg ax,ax
00000F92  6690              xchg ax,ax
00000F94  6690              xchg ax,ax
00000F96  6690              xchg ax,ax
00000F98  6690              xchg ax,ax
00000F9A  6690              xchg ax,ax
00000F9C  6690              xchg ax,ax
00000F9E  6690              xchg ax,ax
00000FA0  6690              xchg ax,ax
00000FA2  6690              xchg ax,ax
00000FA4  6690              xchg ax,ax
00000FA6  6690              xchg ax,ax
00000FA8  6690              xchg ax,ax
00000FAA  6690              xchg ax,ax
00000FAC  6690              xchg ax,ax
00000FAE  6690              xchg ax,ax
00000FB0  6690              xchg ax,ax
00000FB2  6690              xchg ax,ax
00000FB4  6690              xchg ax,ax
00000FB6  6690              xchg ax,ax
00000FB8  6690              xchg ax,ax
00000FBA  6690              xchg ax,ax
00000FBC  6690              xchg ax,ax
00000FBE  6690              xchg ax,ax
00000FC0  6690              xchg ax,ax
00000FC2  6690              xchg ax,ax
00000FC4  6690              xchg ax,ax
00000FC6  6690              xchg ax,ax
00000FC8  6690              xchg ax,ax
00000FCA  6690              xchg ax,ax
00000FCC  6690              xchg ax,ax
00000FCE  6690              xchg ax,ax
00000FD0  6690              xchg ax,ax
00000FD2  6690              xchg ax,ax
00000FD4  6690              xchg ax,ax
00000FD6  6690              xchg ax,ax
00000FD8  6690              xchg ax,ax
00000FDA  6690              xchg ax,ax
00000FDC  6690              xchg ax,ax
00000FDE  6690              xchg ax,ax
00000FE0  6690              xchg ax,ax
00000FE2  6690              xchg ax,ax
00000FE4  6690              xchg ax,ax
00000FE6  6690              xchg ax,ax
00000FE8  6690              xchg ax,ax
00000FEA  6690              xchg ax,ax
00000FEC  6690              xchg ax,ax
00000FEE  6690              xchg ax,ax
00000FF0  6690              xchg ax,ax
00000FF2  6690              xchg ax,ax
00000FF4  6690              xchg ax,ax
00000FF6  6690              xchg ax,ax
00000FF8  6690              xchg ax,ax
00000FFA  6690              xchg ax,ax
00000FFC  6690              xchg ax,ax
00000FFE  6690              xchg ax,ax
00001000  1400              adc al,0x0
00001002  0000              add [eax],al
00001004  0000              add [eax],al
00001006  0000              add [eax],al
00001008  017A52            add [edx+0x52],edi
0000100B  0001              add [ecx],al
0000100D  7C08              jl 0x1017
0000100F  011B              add [ebx],ebx
00001011  0C04              or al,0x4
00001013  0488              add al,0x88
00001015  0100              add [eax],eax
00001017  0010              add [eax],dl
00001019  0000              add [eax],al
0000101B  001C00            add [eax+eax],bl
0000101E  0000              add [eax],al
00001020  48                dec eax
00001021  F0                lock
00001022  FF                db 0xff
00001023  FF01              inc dword [ecx]
00001025  0000              add [eax],al
00001027  0000              add [eax],al
00001029  0000              add [eax],al
0000102B  001400            add [eax+eax],dl
0000102E  0000              add [eax],al
00001030  0000              add [eax],al
00001032  0000              add [eax],al
00001034  017A52            add [edx+0x52],edi
00001037  0001              add [ecx],al
00001039  7C08              jl 0x1043
0000103B  011B              add [ebx],ebx
0000103D  0C04              or al,0x4
0000103F  0488              add al,0x88
00001041  0100              add [eax],eax
00001043  0018              add [eax],bl
00001045  0000              add [eax],al
00001047  001C00            add [eax+eax],bl
0000104A  0000              add [eax],al
0000104C  20F0              and al,dh
0000104E  FF                db 0xff
0000104F  FF26              jmp [esi]
00001051  0000              add [eax],al
00001053  0000              add [eax],al
00001055  41                inc ecx
00001056  0E                push cs
00001057  08830264C30E      or [ebx+0xec36402],al
0000105D  0400              add al,0x0
0000105F  0010              add [eax],dl
00001061  0000              add [eax],al
00001063  0038              add [eax],bh
00001065  0000              add [eax],al
00001067  002CF0            add [eax+esi*8],ch
0000106A  FF                db 0xff
0000106B  FF31              push dword [ecx]
0000106D  0000              add [eax],al
0000106F  0000              add [eax],al
00001071  0000              add [eax],al
00001073  0010              add [eax],dl
00001075  0000              add [eax],al
00001077  004C0000          add [eax+eax+0x0],cl
0000107B  004CF0FF          add [eax+esi*8-0x1],cl
0000107F  FF01              inc dword [ecx]
00001081  0000              add [eax],al
00001083  0000              add [eax],al
00001085  0000              add [eax],al
00001087  0010              add [eax],dl
00001089  0000              add [eax],al
0000108B  006000            add [eax+0x0],ah
0000108E  0000              add [eax],al
00001090  3CF0              cmp al,0xf0
00001092  FF                db 0xff
00001093  FF23              jmp [ebx]
00001095  0000              add [eax],al
00001097  0000              add [eax],al
00001099  0000              add [eax],al
0000109B  001400            add [eax+eax],dl
0000109E  0000              add [eax],al
000010A0  0000              add [eax],al
000010A2  0000              add [eax],al
000010A4  017A52            add [edx+0x52],edi
000010A7  0001              add [ecx],al
000010A9  7C08              jl 0x10b3
000010AB  011B              add [ebx],ebx
000010AD  0C04              or al,0x4
000010AF  0488              add al,0x88
000010B1  0100              add [eax],eax
000010B3  002400            add [eax+eax],ah
000010B6  0000              add [eax],al
000010B8  1C00              sbb al,0x0
000010BA  0000              add [eax],al
000010BC  34F0              xor al,0xf0
000010BE  FF                db 0xff
000010BF  FF11              call [ecx]
000010C1  0100              add [eax],eax
000010C3  0000              add [eax],al
000010C5  41                inc ecx
000010C6  0E                push cs
000010C7  088702410E0C      or [edi+0xc0e4102],al
000010CD  830303            add dword [ebx],byte +0x3
000010D0  0D01C30E08        or eax,0x80ec301
000010D5  41                inc ecx
000010D6  C7                db 0xc7
000010D7  0E                push cs
000010D8  0400              add al,0x0
000010DA  0000              add [eax],al
000010DC  1400              adc al,0x0
000010DE  0000              add [eax],al
000010E0  0000              add [eax],al
000010E2  0000              add [eax],al
000010E4  017A52            add [edx+0x52],edi
000010E7  0001              add [ecx],al
000010E9  7C08              jl 0x10f3
000010EB  011B              add [ebx],ebx
000010ED  0C04              or al,0x4
000010EF  0488              add al,0x88
000010F1  0100              add [eax],eax
000010F3  0010              add [eax],dl
000010F5  0000              add [eax],al
000010F7  001C00            add [eax+eax],bl
000010FA  0000              add [eax],al
000010FC  08F1              or cl,dh
000010FE  FF                db 0xff
000010FF  FF01              inc dword [ecx]
00001101  0000              add [eax],al
00001103  0000              add [eax],al
00001105  0000              add [eax],al
00001107  001400            add [eax+eax],dl
0000110A  0000              add [eax],al
0000110C  0000              add [eax],al
0000110E  0000              add [eax],al
00001110  017A52            add [edx+0x52],edi
00001113  0001              add [ecx],al
00001115  7C08              jl 0x111f
00001117  011B              add [ebx],ebx
00001119  0C04              or al,0x4
0000111B  0488              add al,0x88
0000111D  0100              add [eax],eax
0000111F  0010              add [eax],dl
00001121  0000              add [eax],al
00001123  001C00            add [eax+eax],bl
00001126  0000              add [eax],al
00001128  E0F0              loopne 0x111a
0000112A  FF                db 0xff
0000112B  FF01              inc dword [ecx]
0000112D  0000              add [eax],al
0000112F  0000              add [eax],al
00001131  0000              add [eax],al
00001133  0010              add [eax],dl
00001135  0000              add [eax],al
00001137  0030              add [eax],dh
00001139  0000              add [eax],al
0000113B  00D0              add al,dl
0000113D  F0                lock
0000113E  FF                db 0xff
0000113F  FF01              inc dword [ecx]
00001141  0000              add [eax],al
00001143  0000              add [eax],al
00001145  0000              add [eax],al
00001147  0010              add [eax],dl
00001149  0000              add [eax],al
0000114B  00440000          add [eax+eax+0x0],al
0000114F  00C0              add al,al
00001151  F0                lock
00001152  FF                db 0xff
00001153  FF01              inc dword [ecx]
00001155  0000              add [eax],al
00001157  0000              add [eax],al
00001159  0000              add [eax],al
0000115B  001400            add [eax+eax],dl
0000115E  0000              add [eax],al
00001160  0000              add [eax],al
00001162  0000              add [eax],al
00001164  017A52            add [edx+0x52],edi
00001167  0001              add [ecx],al
00001169  7C08              jl 0x1173
0000116B  011B              add [ebx],ebx
0000116D  0C04              or al,0x4
0000116F  0488              add al,0x88
00001171  0100              add [eax],eax
00001173  001400            add [eax+eax],dl
00001176  0000              add [eax],al
00001178  1C00              sbb al,0x0
0000117A  0000              add [eax],al
0000117C  98                cwde
0000117D  F0                lock
0000117E  FF                db 0xff
0000117F  FF13              call [ebx]
00001181  0000              add [eax],al
00001183  0000              add [eax],al
00001185  41                inc ecx
00001186  0E                push cs
00001187  08510E            or [ecx+0xe],dl
0000118A  0400              add al,0x0
0000118C  1400              adc al,0x0
0000118E  0000              add [eax],al
00001190  0000              add [eax],al
00001192  0000              add [eax],al
00001194  017A52            add [edx+0x52],edi
00001197  0001              add [ecx],al
00001199  7C08              jl 0x11a3
0000119B  011B              add [ebx],ebx
0000119D  0C04              or al,0x4
0000119F  0488              add al,0x88
000011A1  0100              add [eax],eax
000011A3  0010              add [eax],dl
000011A5  0000              add [eax],al
000011A7  001C00            add [eax+eax],bl
000011AA  0000              add [eax],al
000011AC  7CF0              jl 0x119e
000011AE  FF                db 0xff
000011AF  FF01              inc dword [ecx]
000011B1  0000              add [eax],al
000011B3  0000              add [eax],al
000011B5  0000              add [eax],al
000011B7  0020              add [eax],ah
000011B9  0000              add [eax],al
000011BB  0030              add [eax],dh
000011BD  0000              add [eax],al
000011BF  006CF0FF          add [eax+esi*8-0x1],ch
000011C3  FF                db 0xff
000011C4  3E0000            add [ds:eax],al
000011C7  0000              add [eax],al
000011C9  4B                dec ebx
000011CA  0E                push cs
000011CB  088702410E0C      or [edi+0xc0e4102],al
000011D1  8603              xchg al,[ebx]
000011D3  68C60E0841        push dword 0x41080ec6
000011D8  C7                db 0xc7
000011D9  0E                push cs
000011DA  0400              add al,0x0
000011DC  1000              adc [eax],al
000011DE  0000              add [eax],al
000011E0  54                push esp
000011E1  0000              add [eax],al
000011E3  0088F0FFFF38      add [eax+0x38fffff0],cl
000011E9  0000              add [eax],al
000011EB  0000              add [eax],al
000011ED  0000              add [eax],al
000011EF  0010              add [eax],dl
000011F1  0000              add [eax],al
000011F3  006800            add [eax+0x0],ch
000011F6  0000              add [eax],al
000011F8  AC                lodsb
000011F9  F0                lock
000011FA  FF                db 0xff
000011FB  FF10              call [eax]
000011FD  0000              add [eax],al
000011FF  0000              add [eax],al
00001201  0000              add [eax],al
00001203  00440000          add [eax+eax+0x0],al
00001207  007C0000          add [eax+eax+0x0],bh
0000120B  00A8F0FFFF70      add [eax+0x70fffff0],ch
00001211  0000              add [eax],al
00001213  0000              add [eax],al
00001215  41                inc ecx
00001216  0E                push cs
00001217  088602410E0C      or [esi+0xc0e4102],al
0000121D  830341            add dword [ebx],byte +0x41
00001220  0E                push cs
00001221  10600A            adc [eax+0xa],ah
00001224  0E                push cs
00001225  0C41              or al,0x41
00001227  C3                ret
00001228  0E                push cs
00001229  0841C6            or [ecx-0x3a],al
0000122C  0E                push cs
0000122D  0443              add al,0x43
0000122F  0B5F0A            or ebx,[edi+0xa]
00001232  0E                push cs
00001233  0C41              or al,0x41
00001235  C3                ret
00001236  0E                push cs
00001237  0841C6            or [ecx-0x3a],al
0000123A  0E                push cs
0000123B  0441              add al,0x41
0000123D  0B630E            or esp,[ebx+0xe]
00001240  0C41              or al,0x41
00001242  C3                ret
00001243  0E                push cs
00001244  0841C6            or [ecx-0x3a],al
00001247  0E                push cs
00001248  0400              add al,0x0
0000124A  0000              add [eax],al
0000124C  1000              adc [eax],al
0000124E  0000              add [eax],al
00001250  C400              les eax,[eax]
00001252  0000              add [eax],al
00001254  D0                db 0xd0
00001255  F0                lock
00001256  FF                db 0xff
00001257  FF11              call [ecx]
00001259  0000              add [eax],al
0000125B  0000              add [eax],al
0000125D  0000              add [eax],al
0000125F  0010              add [eax],dl
00001261  0000              add [eax],al
00001263  00D8              add al,bl
00001265  0000              add [eax],al
00001267  00D0              add al,dl
00001269  F0                lock
0000126A  FF                db 0xff
0000126B  FF0B              dec dword [ebx]
0000126D  0000              add [eax],al
0000126F  0000              add [eax],al
00001271  0000              add [eax],al
00001273  001400            add [eax+eax],dl
00001276  0000              add [eax],al
00001278  0000              add [eax],al
0000127A  0000              add [eax],al
0000127C  017A52            add [edx+0x52],edi
0000127F  0001              add [ecx],al
00001281  7C08              jl 0x128b
00001283  011B              add [ebx],ebx
00001285  0C04              or al,0x4
00001287  0488              add al,0x88
00001289  0100              add [eax],eax
0000128B  0010              add [eax],dl
0000128D  0000              add [eax],al
0000128F  001C00            add [eax+eax],bl
00001292  0000              add [eax],al
00001294  B0F0              mov al,0xf0
00001296  FF                db 0xff
00001297  FF01              inc dword [ecx]
00001299  0000              add [eax],al
0000129B  0000              add [eax],al
0000129D  0000              add [eax],al
0000129F  0010              add [eax],dl
000012A1  0000              add [eax],al
000012A3  0030              add [eax],dh
000012A5  0000              add [eax],al
000012A7  00A0F0FFFF01      add [eax+0x1fffff0],ah
000012AD  0000              add [eax],al
000012AF  0000              add [eax],al
000012B1  0000              add [eax],al
000012B3  0010              add [eax],dl
000012B5  0000              add [eax],al
000012B7  00440000          add [eax+eax+0x0],al
000012BB  0090F0FFFF01      add [eax+0x1fffff0],dl
000012C1  0000              add [eax],al
000012C3  0000              add [eax],al
000012C5  0000              add [eax],al
000012C7  0010              add [eax],dl
000012C9  0000              add [eax],al
000012CB  005800            add [eax+0x0],bl
000012CE  0000              add [eax],al
000012D0  80F0FF            xor al,0xff
000012D3  FF01              inc dword [ecx]
000012D5  0000              add [eax],al
000012D7  0000              add [eax],al
000012D9  0000              add [eax],al
000012DB  0010              add [eax],dl
000012DD  0000              add [eax],al
000012DF  006C0000          add [eax+eax+0x0],ch
000012E3  0070F0            add [eax-0x10],dh
000012E6  FF                db 0xff
000012E7  FF01              inc dword [ecx]
000012E9  0000              add [eax],al
000012EB  0000              add [eax],al
000012ED  0000              add [eax],al
000012EF  0010              add [eax],dl
000012F1  0000              add [eax],al
000012F3  008000000060      add [eax+0x60000000],al
000012F9  F0                lock
000012FA  FF                db 0xff
000012FB  FF01              inc dword [ecx]
000012FD  0000              add [eax],al
000012FF  0000              add [eax],al
00001301  0000              add [eax],al
00001303  0010              add [eax],dl
00001305  0000              add [eax],al
00001307  009400000050F0    add [eax+eax-0xfb00000],dl
0000130E  FF                db 0xff
0000130F  FF01              inc dword [ecx]
00001311  0000              add [eax],al
00001313  0000              add [eax],al
00001315  0000              add [eax],al
00001317  0010              add [eax],dl
00001319  0000              add [eax],al
0000131B  00A800000040      add [eax+0x40000000],ch
00001321  F0                lock
00001322  FF                db 0xff
00001323  FF01              inc dword [ecx]
00001325  0000              add [eax],al
00001327  0000              add [eax],al
00001329  0000              add [eax],al
0000132B  0010              add [eax],dl
0000132D  0000              add [eax],al
0000132F  00BC00000030F0    add [eax+eax-0xfd00000],bh
00001336  FF                db 0xff
00001337  FF01              inc dword [ecx]
00001339  0000              add [eax],al
0000133B  0000              add [eax],al
0000133D  0000              add [eax],al
0000133F  0010              add [eax],dl
00001341  0000              add [eax],al
00001343  00D0              add al,dl
00001345  0000              add [eax],al
00001347  0020              add [eax],ah
00001349  F0                lock
0000134A  FF                db 0xff
0000134B  FF01              inc dword [ecx]
0000134D  0000              add [eax],al
0000134F  0000              add [eax],al
00001351  0000              add [eax],al
00001353  0010              add [eax],dl
00001355  0000              add [eax],al
00001357  00E4              add ah,ah
00001359  0000              add [eax],al
0000135B  0010              add [eax],dl
0000135D  F0                lock
0000135E  FF                db 0xff
0000135F  FF01              inc dword [ecx]
00001361  0000              add [eax],al
00001363  0000              add [eax],al
00001365  0000              add [eax],al
00001367  0010              add [eax],dl
00001369  0000              add [eax],al
0000136B  00F8              add al,bh
0000136D  0000              add [eax],al
0000136F  0000              add [eax],al
00001371  F0                lock
00001372  FF                db 0xff
00001373  FF01              inc dword [ecx]
00001375  0000              add [eax],al
00001377  0000              add [eax],al
00001379  0000              add [eax],al
0000137B  0010              add [eax],dl
0000137D  0000              add [eax],al
0000137F  000C01            add [ecx+eax],cl
00001382  0000              add [eax],al
00001384  F0EF              lock out dx,eax
00001386  FF                db 0xff
00001387  FF01              inc dword [ecx]
00001389  0000              add [eax],al
0000138B  0000              add [eax],al
0000138D  0000              add [eax],al
0000138F  0010              add [eax],dl
00001391  0000              add [eax],al
00001393  0020              add [eax],ah
00001395  0100              add [eax],eax
00001397  00E0              add al,ah
00001399  EF                out dx,eax
0000139A  FF                db 0xff
0000139B  FF01              inc dword [ecx]
0000139D  0000              add [eax],al
0000139F  0000              add [eax],al
000013A1  0000              add [eax],al
000013A3  0010              add [eax],dl
000013A5  0000              add [eax],al
000013A7  003401            add [ecx+eax],dh
000013AA  0000              add [eax],al
000013AC  D0EF              shr bh,1
000013AE  FF                db 0xff
000013AF  FF01              inc dword [ecx]
000013B1  0000              add [eax],al
000013B3  0000              add [eax],al
000013B5  0000              add [eax],al
000013B7  005000            add [eax+0x0],dl
000013BA  0000              add [eax],al
000013BC  48                dec eax
000013BD  0100              add [eax],eax
000013BF  00C0              add al,al
000013C1  EF                out dx,eax
000013C2  FF                db 0xff
000013C3  FFC2              inc edx
000013C5  0000              add [eax],al
000013C7  0000              add [eax],al
000013C9  41                inc ecx
000013CA  0E                push cs
000013CB  088602410E0C      or [esi+0xc0e4102],al
000013D1  830341            add dword [ebx],byte +0x41
000013D4  0E                push cs
000013D5  105D0E            adc [ebp+0xe],bl
000013D8  1451              adc al,0x51
000013DA  0E                push cs
000013DB  10710A            adc [ecx+0xa],dh
000013DE  0E                push cs
000013DF  0C41              or al,0x41
000013E1  C3                ret
000013E2  0E                push cs
000013E3  0841C6            or [ecx-0x3a],al
000013E6  0E                push cs
000013E7  0444              add al,0x44
000013E9  0B5A0A            or ebx,[edx+0xa]
000013EC  0E                push cs
000013ED  0C41              or al,0x41
000013EF  C3                ret
000013F0  0E                push cs
000013F1  0841C6            or [ecx-0x3a],al
000013F4  0E                push cs
000013F5  0444              add al,0x44
000013F7  0B510E            or edx,[ecx+0xe]
000013FA  1451              adc al,0x51
000013FC  0E                push cs
000013FD  104F0A            adc [edi+0xa],cl
00001400  0E                push cs
00001401  0C41              or al,0x41
00001403  C3                ret
00001404  0E                push cs
00001405  0841C6            or [ecx-0x3a],al
00001408  0E                push cs
00001409  0441              add al,0x41
0000140B  0B1C00            or ebx,[eax+eax]
0000140E  0000              add [eax],al
00001410  9C                pushf
00001411  0100              add [eax],eax
00001413  0030              add [eax],dh
00001415  F0                lock
00001416  FF                db 0xff
00001417  FF1500000000      call [dword 0x0]
0000141D  46                inc esi
0000141E  0E                push cs
0000141F  08420E            or [edx+0xe],al
00001422  0C42              or al,0x42
00001424  0E                push cs
00001425  10420E            adc [edx+0xe],al
00001428  1448              adc al,0x48
0000142A  0E                push cs
0000142B  0414              add al,0x14
0000142D  0000              add [eax],al
0000142F  0000              add [eax],al
00001431  0000              add [eax],al
00001433  0001              add [ecx],al
00001435  7A52              jpe 0x1489
00001437  0001              add [ecx],al
00001439  7C08              jl 0x1443
0000143B  011B              add [ebx],ebx
0000143D  0C04              or al,0x4
0000143F  0488              add al,0x88
00001441  0100              add [eax],eax
00001443  005800            add [eax+0x0],bl
00001446  0000              add [eax],al
00001448  1C00              sbb al,0x0
0000144A  0000              add [eax],al
0000144C  10F0              adc al,dh
0000144E  FF                db 0xff
0000144F  FF                db 0xff
00001450  BF00000000        mov edi,0x0
00001455  41                inc ecx
00001456  0E                push cs
00001457  088702410E0C      or [edi+0xc0e4102],al
0000145D  8603              xchg al,[ebx]
0000145F  41                inc ecx
00001460  0E                push cs
00001461  10830402650A      adc [ebx+0xa650204],al
00001467  C3                ret
00001468  0E                push cs
00001469  0C41              or al,0x41
0000146B  C6                db 0xc6
0000146C  0E                push cs
0000146D  0841C7            or [ecx-0x39],al
00001470  0E                push cs
00001471  0442              add al,0x42
00001473  0B490A            or ecx,[ecx+0xa]
00001476  C3                ret
00001477  0E                push cs
00001478  0C41              or al,0x41
0000147A  C6                db 0xc6
0000147B  0E                push cs
0000147C  0841C7            or [ecx-0x39],al
0000147F  0E                push cs
00001480  0441              add al,0x41
00001482  0B790A            or edi,[ecx+0xa]
00001485  C3                ret
00001486  0E                push cs
00001487  0C41              or al,0x41
00001489  C6                db 0xc6
0000148A  0E                push cs
0000148B  0841C7            or [ecx-0x39],al
0000148E  0E                push cs
0000148F  0445              add al,0x45
00001491  0B44C30E          or eax,[ebx+eax*8+0xe]
00001495  0C41              or al,0x41
00001497  C6                db 0xc6
00001498  0E                push cs
00001499  0841C7            or [ecx-0x39],al
0000149C  0E                push cs
0000149D  0400              add al,0x0
0000149F  00910500C0A9      add [ecx-0x563ffffb],dl
000014A5  0500C0C105        add eax,0x5c1c000
000014AA  00C0              add al,al
000014AC  D90500C0F105      fld dword [dword 0x5f1c000]
000014B2  00C0              add al,al
000014B4  0906              or [esi],eax
000014B6  00C0              add al,al
000014B8  27                daa
000014B9  06                push es
000014BA  00C0              add al,al
000014BC  3F                aas
000014BD  06                push es
000014BE  00C0              add al,al
000014C0  57                push edi
000014C1  06                push es
000014C2  00C0              add al,al
000014C4  7506              jnz 0x14cc
000014C6  00C0              add al,al
000014C8  8D06              lea eax,[esi]
000014CA  00C0              add al,al
000014CC  AB                stosd
000014CD  06                push es
000014CE  00C0              add al,al
000014D0  C9                leave
000014D1  06                push es
000014D2  00C0              add al,al
000014D4  E706              out 0x6,eax
000014D6  00C0              add al,al
000014D8  0B07              or eax,[edi]
000014DA  00C0              add al,al
000014DC  0000              add [eax],al
000014DE  00404B            add [eax+0x4b],al
000014E1  45                inc ebp
000014E2  52                push edx
000014E3  4E                dec esi
000014E4  4C                dec esp
000014E5  3338              xor edi,[eax]
000014E7  362E45            cs inc ebp
000014EA  58                pop eax
000014EB  45                inc ebp
000014EC  0000              add [eax],al
000014EE  0000              add [eax],al
000014F0  0000              add [eax],al
000014F2  0000              add [eax],al
000014F4  0000              add [eax],al
000014F6  0000              add [eax],al
000014F8  0000              add [eax],al
000014FA  0000              add [eax],al
000014FC  0000              add [eax],al
000014FE  0000              add [eax],al
00001500  FF07              inc dword [edi]
00001502  A06000C000        mov al,[0xc00060]
00001507  0027              add [edi],ah
00001509  004015            add [eax+0x15],al
0000150C  00C0              add al,al
0000150E  2100              and [eax],eax
00001510  0000              add [eax],al
00001512  0000              add [eax],al
00001514  0000              add [eax],al
00001516  0000              add [eax],al
00001518  0000              add [eax],al
0000151A  0000              add [eax],al
0000151C  0000              add [eax],al
0000151E  0000              add [eax],al
00001520  0000              add [eax],al
00001522  0000              add [eax],al
00001524  0000              add [eax],al
00001526  0000              add [eax],al
00001528  0000              add [eax],al
0000152A  0000              add [eax],al
0000152C  0000              add [eax],al
0000152E  0000              add [eax],al
00001530  0000              add [eax],al
00001532  0000              add [eax],al
00001534  0000              add [eax],al
00001536  0000              add [eax],al
00001538  0000              add [eax],al
0000153A  0000              add [eax],al
0000153C  0000              add [eax],al
0000153E  0000              add [eax],al
00001540  FF                db 0xff
00001541  FF00              inc dword [eax]
00001543  0000              add [eax],al
00001545  9ACF00FFFF0000    call 0x0:0xffff00cf
0000154C  0092CF00FFFF      add [edx-0xff31],dl
00001552  0000              add [eax],al
00001554  00F8              add al,bh
00001556  CF                iret
00001557  00FF              add bh,bh
00001559  FF00              inc dword [eax]
0000155B  0000              add [eax],al
0000155D  F20F006820        repne verw [eax+0x20]
00001562  0000              add [eax],al
00001564  008900000000      add [ecx+0x0],cl
0000156A  0000              add [eax],al
0000156C  0000              add [eax],al
0000156E  0000              add [eax],al
00001570  0000              add [eax],al
00001572  0000              add [eax],al
00001574  0000              add [eax],al
00001576  0000              add [eax],al
00001578  0000              add [eax],al
0000157A  0000              add [eax],al
0000157C  0000              add [eax],al
0000157E  0000              add [eax],al
00001580  0300              add eax,[eax]
00001582  0000              add [eax],al
00001584  0000              add [eax],al
00001586  0000              add [eax],al
00001588  0000              add [eax],al
0000158A  0000              add [eax],al
0000158C  0000              add [eax],al
0000158E  0000              add [eax],al
00001590  0300              add eax,[eax]
00001592  0000              add [eax],al
00001594  0000              add [eax],al
00001596  0000              add [eax],al
00001598  0000              add [eax],al
0000159A  0000              add [eax],al
0000159C  0000              add [eax],al
0000159E  0000              add [eax],al
000015A0  0300              add eax,[eax]
000015A2  0000              add [eax],al
000015A4  0000              add [eax],al
000015A6  0000              add [eax],al
000015A8  0000              add [eax],al
000015AA  0000              add [eax],al
000015AC  0000              add [eax],al
000015AE  0000              add [eax],al
000015B0  0000              add [eax],al
000015B2  0000              add [eax],al
000015B4  0000              add [eax],al
000015B6  0000              add [eax],al
000015B8  0000              add [eax],al
000015BA  0000              add [eax],al
000015BC  0000              add [eax],al
000015BE  0000              add [eax],al
000015C0  0000              add [eax],al
000015C2  0000              add [eax],al
000015C4  0000              add [eax],al
000015C6  0000              add [eax],al
000015C8  0000              add [eax],al
000015CA  0000              add [eax],al
000015CC  0000              add [eax],al
000015CE  0000              add [eax],al
000015D0  0000              add [eax],al
000015D2  0000              add [eax],al
000015D4  0000              add [eax],al
000015D6  0000              add [eax],al
000015D8  0000              add [eax],al
000015DA  0000              add [eax],al
000015DC  0000              add [eax],al
000015DE  0000              add [eax],al
000015E0  0300              add eax,[eax]
000015E2  0000              add [eax],al
000015E4  0000              add [eax],al
000015E6  0000              add [eax],al
000015E8  0000              add [eax],al
000015EA  0000              add [eax],al
000015EC  0000              add [eax],al
000015EE  0000              add [eax],al
000015F0  0000              add [eax],al
000015F2  0000              add [eax],al
000015F4  0000              add [eax],al
000015F6  0000              add [eax],al
000015F8  0000              add [eax],al
000015FA  0000              add [eax],al
000015FC  0000              add [eax],al
000015FE  0000              add [eax],al
00001600  0300              add eax,[eax]
00001602  0000              add [eax],al
00001604  0000              add [eax],al
00001606  0000              add [eax],al
00001608  0000              add [eax],al
0000160A  0000              add [eax],al
0000160C  0000              add [eax],al
0000160E  0000              add [eax],al
00001610  0000              add [eax],al
00001612  0000              add [eax],al
00001614  0000              add [eax],al
00001616  0000              add [eax],al
00001618  0000              add [eax],al
0000161A  0000              add [eax],al
0000161C  0000              add [eax],al
0000161E  0000              add [eax],al
00001620  0000              add [eax],al
00001622  0000              add [eax],al
00001624  0000              add [eax],al
00001626  0000              add [eax],al
00001628  0000              add [eax],al
0000162A  0000              add [eax],al
0000162C  0000              add [eax],al
0000162E  0000              add [eax],al
00001630  0000              add [eax],al
00001632  0000              add [eax],al
00001634  0000              add [eax],al
00001636  0000              add [eax],al
00001638  0000              add [eax],al
0000163A  0000              add [eax],al
0000163C  0000              add [eax],al
0000163E  0000              add [eax],al
00001640  0000              add [eax],al
00001642  0000              add [eax],al
00001644  0000              add [eax],al
00001646  0000              add [eax],al
00001648  0000              add [eax],al
0000164A  0000              add [eax],al
0000164C  0000              add [eax],al
0000164E  0000              add [eax],al
00001650  0300              add eax,[eax]
00001652  0000              add [eax],al
00001654  0000              add [eax],al
00001656  0000              add [eax],al
00001658  0000              add [eax],al
0000165A  0000              add [eax],al
0000165C  0000              add [eax],al
0000165E  0000              add [eax],al
00001660  0300              add eax,[eax]
00001662  0000              add [eax],al
00001664  0000              add [eax],al
00001666  0000              add [eax],al
00001668  0000              add [eax],al
0000166A  0000              add [eax],al
0000166C  0000              add [eax],al
0000166E  0000              add [eax],al
00001670  0300              add eax,[eax]
00001672  0000              add [eax],al
00001674  0000              add [eax],al
00001676  0000              add [eax],al
00001678  0000              add [eax],al
0000167A  0000              add [eax],al
0000167C  0000              add [eax],al
0000167E  0000              add [eax],al
00001680  E014              loopne 0x1696
00001682  00C0              add al,al
00001684  0000              add [eax],al
00001686  0000              add [eax],al
00001688  0000              add [eax],al
0000168A  0000              add [eax],al
0000168C  0000              add [eax],al
0000168E  0000              add [eax],al
00001690  0000              add [eax],al
00001692  0000              add [eax],al
00001694  0000              add [eax],al
00001696  0000              add [eax],al
00001698  0000              add [eax],al
0000169A  0000              add [eax],al
0000169C  0000              add [eax],al
0000169E  0000              add [eax],al
000016A0  0000              add [eax],al
000016A2  0000              add [eax],al
000016A4  0000              add [eax],al
000016A6  0000              add [eax],al
000016A8  0000              add [eax],al
000016AA  0000              add [eax],al
000016AC  0000              add [eax],al
000016AE  0000              add [eax],al
000016B0  0000              add [eax],al
000016B2  0000              add [eax],al
000016B4  0000              add [eax],al
000016B6  0000              add [eax],al
000016B8  0000              add [eax],al
000016BA  0000              add [eax],al
000016BC  0000              add [eax],al
000016BE  0000              add [eax],al
000016C0  0000              add [eax],al
000016C2  0000              add [eax],al
000016C4  0000              add [eax],al
000016C6  0000              add [eax],al
000016C8  0000              add [eax],al
000016CA  0000              add [eax],al
000016CC  0000              add [eax],al
000016CE  0000              add [eax],al
000016D0  0000              add [eax],al
000016D2  0000              add [eax],al
000016D4  0000              add [eax],al
000016D6  0000              add [eax],al
000016D8  0000              add [eax],al
000016DA  0000              add [eax],al
000016DC  0000              add [eax],al
000016DE  0000              add [eax],al
000016E0  0000              add [eax],al
000016E2  0000              add [eax],al
000016E4  0000              add [eax],al
000016E6  0000              add [eax],al
000016E8  0000              add [eax],al
000016EA  0000              add [eax],al
000016EC  0000              add [eax],al
000016EE  0000              add [eax],al
000016F0  0000              add [eax],al
000016F2  0000              add [eax],al
000016F4  0000              add [eax],al
000016F6  0000              add [eax],al
000016F8  0000              add [eax],al
000016FA  0000              add [eax],al
000016FC  0000              add [eax],al
000016FE  0000              add [eax],al
00001700  0000              add [eax],al
00001702  0000              add [eax],al
00001704  0000              add [eax],al
00001706  0000              add [eax],al
00001708  0000              add [eax],al
0000170A  0000              add [eax],al
0000170C  0000              add [eax],al
0000170E  0000              add [eax],al
00001710  0000              add [eax],al
00001712  0000              add [eax],al
00001714  0000              add [eax],al
00001716  0000              add [eax],al
00001718  0000              add [eax],al
0000171A  0000              add [eax],al
0000171C  0000              add [eax],al
0000171E  0000              add [eax],al
00001720  0000              add [eax],al
00001722  0000              add [eax],al
00001724  0000              add [eax],al
00001726  0000              add [eax],al
00001728  0000              add [eax],al
0000172A  0000              add [eax],al
0000172C  0000              add [eax],al
0000172E  0000              add [eax],al
00001730  0000              add [eax],al
00001732  0000              add [eax],al
00001734  0000              add [eax],al
00001736  0000              add [eax],al
00001738  0000              add [eax],al
0000173A  0000              add [eax],al
0000173C  0000              add [eax],al
0000173E  0000              add [eax],al
00001740  0000              add [eax],al
00001742  0000              add [eax],al
00001744  0000              add [eax],al
00001746  0000              add [eax],al
00001748  0000              add [eax],al
0000174A  0000              add [eax],al
0000174C  0000              add [eax],al
0000174E  0000              add [eax],al
00001750  0000              add [eax],al
00001752  0000              add [eax],al
00001754  0000              add [eax],al
00001756  0000              add [eax],al
00001758  0000              add [eax],al
0000175A  0000              add [eax],al
0000175C  0000              add [eax],al
0000175E  0000              add [eax],al
00001760  0000              add [eax],al
00001762  0000              add [eax],al
00001764  0000              add [eax],al
00001766  0000              add [eax],al
00001768  0000              add [eax],al
0000176A  0000              add [eax],al
0000176C  0000              add [eax],al
0000176E  0000              add [eax],al
00001770  0000              add [eax],al
00001772  0000              add [eax],al
00001774  0000              add [eax],al
00001776  0000              add [eax],al
00001778  0000              add [eax],al
0000177A  0000              add [eax],al
0000177C  0000              add [eax],al
0000177E  0000              add [eax],al
00001780  0000              add [eax],al
00001782  0000              add [eax],al
00001784  0000              add [eax],al
00001786  0000              add [eax],al
00001788  0000              add [eax],al
0000178A  0000              add [eax],al
0000178C  0000              add [eax],al
0000178E  0000              add [eax],al
00001790  0000              add [eax],al
00001792  0000              add [eax],al
00001794  0000              add [eax],al
00001796  0000              add [eax],al
00001798  0000              add [eax],al
0000179A  0000              add [eax],al
0000179C  0000              add [eax],al
0000179E  0000              add [eax],al
000017A0  0000              add [eax],al
000017A2  0000              add [eax],al
000017A4  0000              add [eax],al
000017A6  0000              add [eax],al
000017A8  0000              add [eax],al
000017AA  0000              add [eax],al
000017AC  0000              add [eax],al
000017AE  0000              add [eax],al
000017B0  0000              add [eax],al
000017B2  0000              add [eax],al
000017B4  0000              add [eax],al
000017B6  0000              add [eax],al
000017B8  0000              add [eax],al
000017BA  0000              add [eax],al
000017BC  0000              add [eax],al
000017BE  0000              add [eax],al
000017C0  0000              add [eax],al
000017C2  0000              add [eax],al
000017C4  0000              add [eax],al
000017C6  0000              add [eax],al
000017C8  0000              add [eax],al
000017CA  0000              add [eax],al
000017CC  0000              add [eax],al
000017CE  0000              add [eax],al
000017D0  0000              add [eax],al
000017D2  0000              add [eax],al
000017D4  0000              add [eax],al
000017D6  0000              add [eax],al
000017D8  0000              add [eax],al
000017DA  0000              add [eax],al
000017DC  0000              add [eax],al
000017DE  0000              add [eax],al
000017E0  0000              add [eax],al
000017E2  0000              add [eax],al
000017E4  0000              add [eax],al
000017E6  0000              add [eax],al
000017E8  0000              add [eax],al
000017EA  0000              add [eax],al
000017EC  0000              add [eax],al
000017EE  0000              add [eax],al
000017F0  0000              add [eax],al
000017F2  0000              add [eax],al
000017F4  0000              add [eax],al
000017F6  0000              add [eax],al
000017F8  0000              add [eax],al
000017FA  0000              add [eax],al
000017FC  0000              add [eax],al
000017FE  0000              add [eax],al
00001800  0000              add [eax],al
00001802  0000              add [eax],al
00001804  0000              add [eax],al
00001806  0000              add [eax],al
00001808  0000              add [eax],al
0000180A  0000              add [eax],al
0000180C  0000              add [eax],al
0000180E  0000              add [eax],al
00001810  0000              add [eax],al
00001812  0000              add [eax],al
00001814  0000              add [eax],al
00001816  0000              add [eax],al
00001818  0000              add [eax],al
0000181A  0000              add [eax],al
0000181C  0000              add [eax],al
0000181E  0000              add [eax],al
00001820  0000              add [eax],al
00001822  0000              add [eax],al
00001824  0000              add [eax],al
00001826  0000              add [eax],al
00001828  0000              add [eax],al
0000182A  0000              add [eax],al
0000182C  0000              add [eax],al
0000182E  0000              add [eax],al
00001830  0000              add [eax],al
00001832  0000              add [eax],al
00001834  0000              add [eax],al
00001836  0000              add [eax],al
00001838  0000              add [eax],al
0000183A  0000              add [eax],al
0000183C  0000              add [eax],al
0000183E  0000              add [eax],al
00001840  0000              add [eax],al
00001842  0000              add [eax],al
00001844  0000              add [eax],al
00001846  0000              add [eax],al
00001848  0000              add [eax],al
0000184A  0000              add [eax],al
0000184C  0000              add [eax],al
0000184E  0000              add [eax],al
00001850  0000              add [eax],al
00001852  0000              add [eax],al
00001854  0000              add [eax],al
00001856  0000              add [eax],al
00001858  0000              add [eax],al
0000185A  0000              add [eax],al
0000185C  0000              add [eax],al
0000185E  0000              add [eax],al
00001860  0000              add [eax],al
00001862  0000              add [eax],al
00001864  0000              add [eax],al
00001866  0000              add [eax],al
00001868  0000              add [eax],al
0000186A  0000              add [eax],al
0000186C  0000              add [eax],al
0000186E  0000              add [eax],al
00001870  0000              add [eax],al
00001872  0000              add [eax],al
00001874  0000              add [eax],al
00001876  0000              add [eax],al
00001878  0000              add [eax],al
0000187A  0000              add [eax],al
0000187C  0000              add [eax],al
0000187E  0000              add [eax],al
00001880  0000              add [eax],al
00001882  0000              add [eax],al
00001884  0000              add [eax],al
00001886  0000              add [eax],al
00001888  0000              add [eax],al
0000188A  0000              add [eax],al
0000188C  0000              add [eax],al
0000188E  0000              add [eax],al
00001890  0000              add [eax],al
00001892  0000              add [eax],al
00001894  0000              add [eax],al
00001896  0000              add [eax],al
00001898  0000              add [eax],al
0000189A  0000              add [eax],al
0000189C  0000              add [eax],al
0000189E  0000              add [eax],al
000018A0  0000              add [eax],al
000018A2  0000              add [eax],al
000018A4  0000              add [eax],al
000018A6  0000              add [eax],al
000018A8  0000              add [eax],al
000018AA  0000              add [eax],al
000018AC  0000              add [eax],al
000018AE  0000              add [eax],al
000018B0  0000              add [eax],al
000018B2  0000              add [eax],al
000018B4  0000              add [eax],al
000018B6  0000              add [eax],al
000018B8  0000              add [eax],al
000018BA  0000              add [eax],al
000018BC  0000              add [eax],al
000018BE  0000              add [eax],al
000018C0  0000              add [eax],al
000018C2  0000              add [eax],al
000018C4  0000              add [eax],al
000018C6  0000              add [eax],al
000018C8  0000              add [eax],al
000018CA  0000              add [eax],al
000018CC  0000              add [eax],al
000018CE  0000              add [eax],al
000018D0  0000              add [eax],al
000018D2  0000              add [eax],al
000018D4  0000              add [eax],al
000018D6  0000              add [eax],al
000018D8  0000              add [eax],al
000018DA  0000              add [eax],al
000018DC  0000              add [eax],al
000018DE  0000              add [eax],al
000018E0  0000              add [eax],al
000018E2  0000              add [eax],al
000018E4  0000              add [eax],al
000018E6  0000              add [eax],al
000018E8  0000              add [eax],al
000018EA  0000              add [eax],al
000018EC  0000              add [eax],al
000018EE  0000              add [eax],al
000018F0  0000              add [eax],al
000018F2  0000              add [eax],al
000018F4  0000              add [eax],al
000018F6  0000              add [eax],al
000018F8  0000              add [eax],al
000018FA  0000              add [eax],al
000018FC  0000              add [eax],al
000018FE  0000              add [eax],al
00001900  0000              add [eax],al
00001902  0000              add [eax],al
00001904  0000              add [eax],al
00001906  0000              add [eax],al
00001908  0000              add [eax],al
0000190A  0000              add [eax],al
0000190C  0000              add [eax],al
0000190E  0000              add [eax],al
00001910  0000              add [eax],al
00001912  0000              add [eax],al
00001914  0000              add [eax],al
00001916  0000              add [eax],al
00001918  0000              add [eax],al
0000191A  0000              add [eax],al
0000191C  0000              add [eax],al
0000191E  0000              add [eax],al
00001920  0000              add [eax],al
00001922  0000              add [eax],al
00001924  0000              add [eax],al
00001926  0000              add [eax],al
00001928  0000              add [eax],al
0000192A  0000              add [eax],al
0000192C  0000              add [eax],al
0000192E  0000              add [eax],al
00001930  0000              add [eax],al
00001932  0000              add [eax],al
00001934  0000              add [eax],al
00001936  0000              add [eax],al
00001938  0000              add [eax],al
0000193A  0000              add [eax],al
0000193C  0000              add [eax],al
0000193E  0000              add [eax],al
00001940  0000              add [eax],al
00001942  0000              add [eax],al
00001944  0000              add [eax],al
00001946  0000              add [eax],al
00001948  0000              add [eax],al
0000194A  0000              add [eax],al
0000194C  0000              add [eax],al
0000194E  0000              add [eax],al
00001950  0000              add [eax],al
00001952  0000              add [eax],al
00001954  0000              add [eax],al
00001956  0000              add [eax],al
00001958  0000              add [eax],al
0000195A  0000              add [eax],al
0000195C  0000              add [eax],al
0000195E  0000              add [eax],al
00001960  0000              add [eax],al
00001962  0000              add [eax],al
00001964  0000              add [eax],al
00001966  0000              add [eax],al
00001968  0000              add [eax],al
0000196A  0000              add [eax],al
0000196C  0000              add [eax],al
0000196E  0000              add [eax],al
00001970  0000              add [eax],al
00001972  0000              add [eax],al
00001974  0000              add [eax],al
00001976  0000              add [eax],al
00001978  0000              add [eax],al
0000197A  0000              add [eax],al
0000197C  0000              add [eax],al
0000197E  0000              add [eax],al
00001980  0000              add [eax],al
00001982  0000              add [eax],al
00001984  0000              add [eax],al
00001986  0000              add [eax],al
00001988  0000              add [eax],al
0000198A  0000              add [eax],al
0000198C  0000              add [eax],al
0000198E  0000              add [eax],al
00001990  0000              add [eax],al
00001992  0000              add [eax],al
00001994  0000              add [eax],al
00001996  0000              add [eax],al
00001998  0000              add [eax],al
0000199A  0000              add [eax],al
0000199C  0000              add [eax],al
0000199E  0000              add [eax],al
000019A0  0000              add [eax],al
000019A2  0000              add [eax],al
000019A4  0000              add [eax],al
000019A6  0000              add [eax],al
000019A8  0000              add [eax],al
000019AA  0000              add [eax],al
000019AC  0000              add [eax],al
000019AE  0000              add [eax],al
000019B0  0000              add [eax],al
000019B2  0000              add [eax],al
000019B4  0000              add [eax],al
000019B6  0000              add [eax],al
000019B8  0000              add [eax],al
000019BA  0000              add [eax],al
000019BC  0000              add [eax],al
000019BE  0000              add [eax],al
000019C0  0000              add [eax],al
000019C2  0000              add [eax],al
000019C4  0000              add [eax],al
000019C6  0000              add [eax],al
000019C8  0000              add [eax],al
000019CA  0000              add [eax],al
000019CC  0000              add [eax],al
000019CE  0000              add [eax],al
000019D0  0000              add [eax],al
000019D2  0000              add [eax],al
000019D4  0000              add [eax],al
000019D6  0000              add [eax],al
000019D8  0000              add [eax],al
000019DA  0000              add [eax],al
000019DC  0000              add [eax],al
000019DE  0000              add [eax],al
000019E0  0000              add [eax],al
000019E2  0000              add [eax],al
000019E4  0000              add [eax],al
000019E6  0000              add [eax],al
000019E8  0000              add [eax],al
000019EA  0000              add [eax],al
000019EC  0000              add [eax],al
000019EE  0000              add [eax],al
000019F0  0000              add [eax],al
000019F2  0000              add [eax],al
000019F4  0000              add [eax],al
000019F6  0000              add [eax],al
000019F8  0000              add [eax],al
000019FA  0000              add [eax],al
000019FC  0000              add [eax],al
000019FE  0000              add [eax],al
00001A00  0000              add [eax],al
00001A02  0000              add [eax],al
00001A04  0000              add [eax],al
00001A06  0000              add [eax],al
00001A08  0000              add [eax],al
00001A0A  0000              add [eax],al
00001A0C  0000              add [eax],al
00001A0E  0000              add [eax],al
00001A10  0000              add [eax],al
00001A12  0000              add [eax],al
00001A14  0000              add [eax],al
00001A16  0000              add [eax],al
00001A18  0000              add [eax],al
00001A1A  0000              add [eax],al
00001A1C  0000              add [eax],al
00001A1E  0000              add [eax],al
00001A20  0000              add [eax],al
00001A22  0000              add [eax],al
00001A24  0000              add [eax],al
00001A26  0000              add [eax],al
00001A28  0000              add [eax],al
00001A2A  0000              add [eax],al
00001A2C  0000              add [eax],al
00001A2E  0000              add [eax],al
00001A30  0000              add [eax],al
00001A32  0000              add [eax],al
00001A34  0000              add [eax],al
00001A36  0000              add [eax],al
00001A38  0000              add [eax],al
00001A3A  0000              add [eax],al
00001A3C  0000              add [eax],al
00001A3E  0000              add [eax],al
00001A40  0000              add [eax],al
00001A42  0000              add [eax],al
00001A44  0000              add [eax],al
00001A46  0000              add [eax],al
00001A48  0000              add [eax],al
00001A4A  0000              add [eax],al
00001A4C  0000              add [eax],al
00001A4E  0000              add [eax],al
00001A50  0000              add [eax],al
00001A52  0000              add [eax],al
00001A54  0000              add [eax],al
00001A56  0000              add [eax],al
00001A58  0000              add [eax],al
00001A5A  0000              add [eax],al
00001A5C  0000              add [eax],al
00001A5E  0000              add [eax],al
00001A60  0000              add [eax],al
00001A62  0000              add [eax],al
00001A64  0000              add [eax],al
00001A66  0000              add [eax],al
00001A68  0000              add [eax],al
00001A6A  0000              add [eax],al
00001A6C  0000              add [eax],al
00001A6E  0000              add [eax],al
00001A70  0000              add [eax],al
00001A72  0000              add [eax],al
00001A74  0000              add [eax],al
00001A76  0000              add [eax],al
00001A78  0000              add [eax],al
00001A7A  0000              add [eax],al
00001A7C  0000              add [eax],al
00001A7E  0000              add [eax],al
00001A80  0000              add [eax],al
00001A82  0000              add [eax],al
00001A84  0000              add [eax],al
00001A86  0000              add [eax],al
00001A88  0000              add [eax],al
00001A8A  0000              add [eax],al
00001A8C  0000              add [eax],al
00001A8E  0000              add [eax],al
00001A90  0000              add [eax],al
00001A92  0000              add [eax],al
00001A94  0000              add [eax],al
00001A96  0000              add [eax],al
00001A98  0000              add [eax],al
00001A9A  0000              add [eax],al
00001A9C  0000              add [eax],al
00001A9E  0000              add [eax],al
00001AA0  0000              add [eax],al
00001AA2  0000              add [eax],al
00001AA4  0000              add [eax],al
00001AA6  0000              add [eax],al
00001AA8  0000              add [eax],al
00001AAA  0000              add [eax],al
00001AAC  0000              add [eax],al
00001AAE  0000              add [eax],al
00001AB0  0000              add [eax],al
00001AB2  0000              add [eax],al
00001AB4  0000              add [eax],al
00001AB6  0000              add [eax],al
00001AB8  0000              add [eax],al
00001ABA  0000              add [eax],al
00001ABC  0000              add [eax],al
00001ABE  0000              add [eax],al
00001AC0  0000              add [eax],al
00001AC2  0000              add [eax],al
00001AC4  0000              add [eax],al
00001AC6  0000              add [eax],al
00001AC8  0000              add [eax],al
00001ACA  0000              add [eax],al
00001ACC  0000              add [eax],al
00001ACE  0000              add [eax],al
00001AD0  0000              add [eax],al
00001AD2  0000              add [eax],al
00001AD4  0000              add [eax],al
00001AD6  0000              add [eax],al
00001AD8  0000              add [eax],al
00001ADA  0000              add [eax],al
00001ADC  0000              add [eax],al
00001ADE  0000              add [eax],al
00001AE0  0000              add [eax],al
00001AE2  0000              add [eax],al
00001AE4  0000              add [eax],al
00001AE6  0000              add [eax],al
00001AE8  0000              add [eax],al
00001AEA  0000              add [eax],al
00001AEC  0000              add [eax],al
00001AEE  0000              add [eax],al
00001AF0  0000              add [eax],al
00001AF2  0000              add [eax],al
00001AF4  0000              add [eax],al
00001AF6  0000              add [eax],al
00001AF8  0000              add [eax],al
00001AFA  0000              add [eax],al
00001AFC  0000              add [eax],al
00001AFE  0000              add [eax],al
00001B00  0000              add [eax],al
00001B02  0000              add [eax],al
00001B04  0000              add [eax],al
00001B06  0000              add [eax],al
00001B08  0000              add [eax],al
00001B0A  0000              add [eax],al
00001B0C  0000              add [eax],al
00001B0E  0000              add [eax],al
00001B10  0000              add [eax],al
00001B12  0000              add [eax],al
00001B14  0000              add [eax],al
00001B16  0000              add [eax],al
00001B18  0000              add [eax],al
00001B1A  0000              add [eax],al
00001B1C  0000              add [eax],al
00001B1E  0000              add [eax],al
00001B20  0000              add [eax],al
00001B22  0000              add [eax],al
00001B24  0000              add [eax],al
00001B26  0000              add [eax],al
00001B28  0000              add [eax],al
00001B2A  0000              add [eax],al
00001B2C  0000              add [eax],al
00001B2E  0000              add [eax],al
00001B30  0000              add [eax],al
00001B32  0000              add [eax],al
00001B34  0000              add [eax],al
00001B36  0000              add [eax],al
00001B38  0000              add [eax],al
00001B3A  0000              add [eax],al
00001B3C  0000              add [eax],al
00001B3E  0000              add [eax],al
00001B40  0000              add [eax],al
00001B42  0000              add [eax],al
00001B44  0000              add [eax],al
00001B46  0000              add [eax],al
00001B48  0000              add [eax],al
00001B4A  0000              add [eax],al
00001B4C  0000              add [eax],al
00001B4E  0000              add [eax],al
00001B50  0000              add [eax],al
00001B52  0000              add [eax],al
00001B54  0000              add [eax],al
00001B56  0000              add [eax],al
00001B58  0000              add [eax],al
00001B5A  0000              add [eax],al
00001B5C  0000              add [eax],al
00001B5E  0000              add [eax],al
00001B60  0000              add [eax],al
00001B62  0000              add [eax],al
00001B64  0000              add [eax],al
00001B66  0000              add [eax],al
00001B68  0000              add [eax],al
00001B6A  0000              add [eax],al
00001B6C  0000              add [eax],al
00001B6E  0000              add [eax],al
00001B70  0000              add [eax],al
00001B72  0000              add [eax],al
00001B74  0000              add [eax],al
00001B76  0000              add [eax],al
00001B78  0000              add [eax],al
00001B7A  0000              add [eax],al
00001B7C  0000              add [eax],al
00001B7E  0000              add [eax],al
00001B80  0000              add [eax],al
00001B82  0000              add [eax],al
00001B84  0000              add [eax],al
00001B86  0000              add [eax],al
00001B88  0000              add [eax],al
00001B8A  0000              add [eax],al
00001B8C  0000              add [eax],al
00001B8E  0000              add [eax],al
00001B90  0000              add [eax],al
00001B92  0000              add [eax],al
00001B94  0000              add [eax],al
00001B96  0000              add [eax],al
00001B98  0000              add [eax],al
00001B9A  0000              add [eax],al
00001B9C  0000              add [eax],al
00001B9E  0000              add [eax],al
00001BA0  0000              add [eax],al
00001BA2  0000              add [eax],al
00001BA4  0000              add [eax],al
00001BA6  0000              add [eax],al
00001BA8  0000              add [eax],al
00001BAA  0000              add [eax],al
00001BAC  0000              add [eax],al
00001BAE  0000              add [eax],al
00001BB0  0000              add [eax],al
00001BB2  0000              add [eax],al
00001BB4  0000              add [eax],al
00001BB6  0000              add [eax],al
00001BB8  0000              add [eax],al
00001BBA  0000              add [eax],al
00001BBC  0000              add [eax],al
00001BBE  0000              add [eax],al
00001BC0  0000              add [eax],al
00001BC2  0000              add [eax],al
00001BC4  0000              add [eax],al
00001BC6  0000              add [eax],al
00001BC8  0000              add [eax],al
00001BCA  0000              add [eax],al
00001BCC  0000              add [eax],al
00001BCE  0000              add [eax],al
00001BD0  0000              add [eax],al
00001BD2  0000              add [eax],al
00001BD4  0000              add [eax],al
00001BD6  0000              add [eax],al
00001BD8  0000              add [eax],al
00001BDA  0000              add [eax],al
00001BDC  0000              add [eax],al
00001BDE  0000              add [eax],al
00001BE0  0000              add [eax],al
00001BE2  0000              add [eax],al
00001BE4  0000              add [eax],al
00001BE6  0000              add [eax],al
00001BE8  0000              add [eax],al
00001BEA  0000              add [eax],al
00001BEC  0000              add [eax],al
00001BEE  0000              add [eax],al
00001BF0  0000              add [eax],al
00001BF2  0000              add [eax],al
00001BF4  0000              add [eax],al
00001BF6  0000              add [eax],al
00001BF8  0000              add [eax],al
00001BFA  0000              add [eax],al
00001BFC  0000              add [eax],al
00001BFE  0000              add [eax],al
00001C00  0000              add [eax],al
00001C02  0000              add [eax],al
00001C04  0000              add [eax],al
00001C06  0000              add [eax],al
00001C08  0000              add [eax],al
00001C0A  0000              add [eax],al
00001C0C  0000              add [eax],al
00001C0E  0000              add [eax],al
00001C10  0000              add [eax],al
00001C12  0000              add [eax],al
00001C14  0000              add [eax],al
00001C16  0000              add [eax],al
00001C18  0000              add [eax],al
00001C1A  0000              add [eax],al
00001C1C  0000              add [eax],al
00001C1E  0000              add [eax],al
00001C20  0000              add [eax],al
00001C22  0000              add [eax],al
00001C24  0000              add [eax],al
00001C26  0000              add [eax],al
00001C28  0000              add [eax],al
00001C2A  0000              add [eax],al
00001C2C  0000              add [eax],al
00001C2E  0000              add [eax],al
00001C30  0000              add [eax],al
00001C32  0000              add [eax],al
00001C34  0000              add [eax],al
00001C36  0000              add [eax],al
00001C38  0000              add [eax],al
00001C3A  0000              add [eax],al
00001C3C  0000              add [eax],al
00001C3E  0000              add [eax],al
00001C40  0000              add [eax],al
00001C42  0000              add [eax],al
00001C44  0000              add [eax],al
00001C46  0000              add [eax],al
00001C48  0000              add [eax],al
00001C4A  0000              add [eax],al
00001C4C  0000              add [eax],al
00001C4E  0000              add [eax],al
00001C50  0000              add [eax],al
00001C52  0000              add [eax],al
00001C54  0000              add [eax],al
00001C56  0000              add [eax],al
00001C58  0000              add [eax],al
00001C5A  0000              add [eax],al
00001C5C  0000              add [eax],al
00001C5E  0000              add [eax],al
00001C60  0000              add [eax],al
00001C62  0000              add [eax],al
00001C64  0000              add [eax],al
00001C66  0000              add [eax],al
00001C68  0000              add [eax],al
00001C6A  0000              add [eax],al
00001C6C  0000              add [eax],al
00001C6E  0000              add [eax],al
00001C70  0000              add [eax],al
00001C72  0000              add [eax],al
00001C74  0000              add [eax],al
00001C76  0000              add [eax],al
00001C78  0000              add [eax],al
00001C7A  0000              add [eax],al
00001C7C  0000              add [eax],al
00001C7E  0000              add [eax],al
00001C80  0000              add [eax],al
00001C82  0000              add [eax],al
00001C84  0000              add [eax],al
00001C86  0000              add [eax],al
00001C88  0000              add [eax],al
00001C8A  0000              add [eax],al
00001C8C  0000              add [eax],al
00001C8E  0000              add [eax],al
00001C90  0000              add [eax],al
00001C92  0000              add [eax],al
00001C94  0000              add [eax],al
00001C96  0000              add [eax],al
00001C98  0000              add [eax],al
00001C9A  0000              add [eax],al
00001C9C  0000              add [eax],al
00001C9E  0000              add [eax],al
00001CA0  0000              add [eax],al
00001CA2  0000              add [eax],al
00001CA4  0000              add [eax],al
00001CA6  0000              add [eax],al
00001CA8  0000              add [eax],al
00001CAA  0000              add [eax],al
00001CAC  0000              add [eax],al
00001CAE  0000              add [eax],al
00001CB0  0000              add [eax],al
00001CB2  0000              add [eax],al
00001CB4  0000              add [eax],al
00001CB6  0000              add [eax],al
00001CB8  0000              add [eax],al
00001CBA  0000              add [eax],al
00001CBC  0000              add [eax],al
00001CBE  0000              add [eax],al
00001CC0  0000              add [eax],al
00001CC2  0000              add [eax],al
00001CC4  0000              add [eax],al
00001CC6  0000              add [eax],al
00001CC8  0000              add [eax],al
00001CCA  0000              add [eax],al
00001CCC  0000              add [eax],al
00001CCE  0000              add [eax],al
00001CD0  0000              add [eax],al
00001CD2  0000              add [eax],al
00001CD4  0000              add [eax],al
00001CD6  0000              add [eax],al
00001CD8  0000              add [eax],al
00001CDA  0000              add [eax],al
00001CDC  0000              add [eax],al
00001CDE  0000              add [eax],al
00001CE0  0000              add [eax],al
00001CE2  0000              add [eax],al
00001CE4  0000              add [eax],al
00001CE6  0000              add [eax],al
00001CE8  0000              add [eax],al
00001CEA  0000              add [eax],al
00001CEC  0000              add [eax],al
00001CEE  0000              add [eax],al
00001CF0  0000              add [eax],al
00001CF2  0000              add [eax],al
00001CF4  0000              add [eax],al
00001CF6  0000              add [eax],al
00001CF8  0000              add [eax],al
00001CFA  0000              add [eax],al
00001CFC  0000              add [eax],al
00001CFE  0000              add [eax],al
00001D00  0000              add [eax],al
00001D02  0000              add [eax],al
00001D04  0000              add [eax],al
00001D06  0000              add [eax],al
00001D08  0000              add [eax],al
00001D0A  0000              add [eax],al
00001D0C  0000              add [eax],al
00001D0E  0000              add [eax],al
00001D10  0000              add [eax],al
00001D12  0000              add [eax],al
00001D14  0000              add [eax],al
00001D16  0000              add [eax],al
00001D18  0000              add [eax],al
00001D1A  0000              add [eax],al
00001D1C  0000              add [eax],al
00001D1E  0000              add [eax],al
00001D20  0000              add [eax],al
00001D22  0000              add [eax],al
00001D24  0000              add [eax],al
00001D26  0000              add [eax],al
00001D28  0000              add [eax],al
00001D2A  0000              add [eax],al
00001D2C  0000              add [eax],al
00001D2E  0000              add [eax],al
00001D30  0000              add [eax],al
00001D32  0000              add [eax],al
00001D34  0000              add [eax],al
00001D36  0000              add [eax],al
00001D38  0000              add [eax],al
00001D3A  0000              add [eax],al
00001D3C  0000              add [eax],al
00001D3E  0000              add [eax],al
00001D40  0000              add [eax],al
00001D42  0000              add [eax],al
00001D44  0000              add [eax],al
00001D46  0000              add [eax],al
00001D48  0000              add [eax],al
00001D4A  0000              add [eax],al
00001D4C  0000              add [eax],al
00001D4E  0000              add [eax],al
00001D50  0000              add [eax],al
00001D52  0000              add [eax],al
00001D54  0000              add [eax],al
00001D56  0000              add [eax],al
00001D58  0000              add [eax],al
00001D5A  0000              add [eax],al
00001D5C  0000              add [eax],al
00001D5E  0000              add [eax],al
00001D60  0000              add [eax],al
00001D62  0000              add [eax],al
00001D64  0000              add [eax],al
00001D66  0000              add [eax],al
00001D68  0000              add [eax],al
00001D6A  0000              add [eax],al
00001D6C  0000              add [eax],al
00001D6E  0000              add [eax],al
00001D70  0000              add [eax],al
00001D72  0000              add [eax],al
00001D74  0000              add [eax],al
00001D76  0000              add [eax],al
00001D78  0000              add [eax],al
00001D7A  0000              add [eax],al
00001D7C  0000              add [eax],al
00001D7E  0000              add [eax],al
00001D80  0000              add [eax],al
00001D82  0000              add [eax],al
00001D84  0000              add [eax],al
00001D86  0000              add [eax],al
00001D88  0000              add [eax],al
00001D8A  0000              add [eax],al
00001D8C  0000              add [eax],al
00001D8E  0000              add [eax],al
00001D90  0000              add [eax],al
00001D92  0000              add [eax],al
00001D94  0000              add [eax],al
00001D96  0000              add [eax],al
00001D98  0000              add [eax],al
00001D9A  0000              add [eax],al
00001D9C  0000              add [eax],al
00001D9E  0000              add [eax],al
00001DA0  0000              add [eax],al
00001DA2  0000              add [eax],al
00001DA4  0000              add [eax],al
00001DA6  0000              add [eax],al
00001DA8  0000              add [eax],al
00001DAA  0000              add [eax],al
00001DAC  0000              add [eax],al
00001DAE  0000              add [eax],al
00001DB0  0000              add [eax],al
00001DB2  0000              add [eax],al
00001DB4  0000              add [eax],al
00001DB6  0000              add [eax],al
00001DB8  0000              add [eax],al
00001DBA  0000              add [eax],al
00001DBC  0000              add [eax],al
00001DBE  0000              add [eax],al
00001DC0  0000              add [eax],al
00001DC2  0000              add [eax],al
00001DC4  0000              add [eax],al
00001DC6  0000              add [eax],al
00001DC8  0000              add [eax],al
00001DCA  0000              add [eax],al
00001DCC  0000              add [eax],al
00001DCE  0000              add [eax],al
00001DD0  0000              add [eax],al
00001DD2  0000              add [eax],al
00001DD4  0000              add [eax],al
00001DD6  0000              add [eax],al
00001DD8  0000              add [eax],al
00001DDA  0000              add [eax],al
00001DDC  0000              add [eax],al
00001DDE  0000              add [eax],al
00001DE0  0000              add [eax],al
00001DE2  0000              add [eax],al
00001DE4  0000              add [eax],al
00001DE6  0000              add [eax],al
00001DE8  0000              add [eax],al
00001DEA  0000              add [eax],al
00001DEC  0000              add [eax],al
00001DEE  0000              add [eax],al
00001DF0  0000              add [eax],al
00001DF2  0000              add [eax],al
00001DF4  0000              add [eax],al
00001DF6  0000              add [eax],al
00001DF8  0000              add [eax],al
00001DFA  0000              add [eax],al
00001DFC  0000              add [eax],al
00001DFE  0000              add [eax],al
00001E00  0000              add [eax],al
00001E02  0000              add [eax],al
00001E04  0000              add [eax],al
00001E06  0000              add [eax],al
00001E08  0000              add [eax],al
00001E0A  0000              add [eax],al
00001E0C  0000              add [eax],al
00001E0E  0000              add [eax],al
00001E10  0000              add [eax],al
00001E12  0000              add [eax],al
00001E14  0000              add [eax],al
00001E16  0000              add [eax],al
00001E18  0000              add [eax],al
00001E1A  0000              add [eax],al
00001E1C  0000              add [eax],al
00001E1E  0000              add [eax],al
00001E20  0000              add [eax],al
00001E22  0000              add [eax],al
00001E24  0000              add [eax],al
00001E26  0000              add [eax],al
00001E28  0000              add [eax],al
00001E2A  0000              add [eax],al
00001E2C  0000              add [eax],al
00001E2E  0000              add [eax],al
00001E30  0000              add [eax],al
00001E32  0000              add [eax],al
00001E34  0000              add [eax],al
00001E36  0000              add [eax],al
00001E38  0000              add [eax],al
00001E3A  0000              add [eax],al
00001E3C  0000              add [eax],al
00001E3E  0000              add [eax],al
00001E40  0000              add [eax],al
00001E42  0000              add [eax],al
00001E44  0000              add [eax],al
00001E46  0000              add [eax],al
00001E48  0000              add [eax],al
00001E4A  0000              add [eax],al
00001E4C  0000              add [eax],al
00001E4E  0000              add [eax],al
00001E50  0000              add [eax],al
00001E52  0000              add [eax],al
00001E54  0000              add [eax],al
00001E56  0000              add [eax],al
00001E58  0000              add [eax],al
00001E5A  0000              add [eax],al
00001E5C  0000              add [eax],al
00001E5E  0000              add [eax],al
00001E60  0000              add [eax],al
00001E62  0000              add [eax],al
00001E64  0000              add [eax],al
00001E66  0000              add [eax],al
00001E68  0000              add [eax],al
00001E6A  0000              add [eax],al
00001E6C  0000              add [eax],al
00001E6E  0000              add [eax],al
00001E70  0000              add [eax],al
00001E72  0000              add [eax],al
00001E74  0000              add [eax],al
00001E76  0000              add [eax],al
00001E78  0000              add [eax],al
00001E7A  0000              add [eax],al
00001E7C  0000              add [eax],al
00001E7E  0000              add [eax],al
00001E80  0000              add [eax],al
00001E82  0000              add [eax],al
00001E84  0000              add [eax],al
00001E86  0000              add [eax],al
00001E88  0000              add [eax],al
00001E8A  0000              add [eax],al
00001E8C  0000              add [eax],al
00001E8E  0000              add [eax],al
00001E90  0000              add [eax],al
00001E92  0000              add [eax],al
00001E94  0000              add [eax],al
00001E96  0000              add [eax],al
00001E98  0000              add [eax],al
00001E9A  0000              add [eax],al
00001E9C  0000              add [eax],al
00001E9E  0000              add [eax],al
00001EA0  0000              add [eax],al
00001EA2  0000              add [eax],al
00001EA4  0000              add [eax],al
00001EA6  0000              add [eax],al
00001EA8  0000              add [eax],al
00001EAA  0000              add [eax],al
00001EAC  0000              add [eax],al
00001EAE  0000              add [eax],al
00001EB0  0000              add [eax],al
00001EB2  0000              add [eax],al
00001EB4  0000              add [eax],al
00001EB6  0000              add [eax],al
00001EB8  0000              add [eax],al
00001EBA  0000              add [eax],al
00001EBC  0000              add [eax],al
00001EBE  0000              add [eax],al
00001EC0  0000              add [eax],al
00001EC2  0000              add [eax],al
00001EC4  0000              add [eax],al
00001EC6  0000              add [eax],al
00001EC8  0000              add [eax],al
00001ECA  0000              add [eax],al
00001ECC  0000              add [eax],al
00001ECE  0000              add [eax],al
00001ED0  0000              add [eax],al
00001ED2  0000              add [eax],al
00001ED4  0000              add [eax],al
00001ED6  0000              add [eax],al
00001ED8  0000              add [eax],al
00001EDA  0000              add [eax],al
00001EDC  0000              add [eax],al
00001EDE  0000              add [eax],al
00001EE0  0000              add [eax],al
00001EE2  0000              add [eax],al
00001EE4  0000              add [eax],al
00001EE6  0000              add [eax],al
00001EE8  0000              add [eax],al
00001EEA  0000              add [eax],al
00001EEC  0000              add [eax],al
00001EEE  0000              add [eax],al
00001EF0  0000              add [eax],al
00001EF2  0000              add [eax],al
00001EF4  0000              add [eax],al
00001EF6  0000              add [eax],al
00001EF8  0000              add [eax],al
00001EFA  0000              add [eax],al
00001EFC  0000              add [eax],al
00001EFE  0000              add [eax],al
00001F00  0000              add [eax],al
00001F02  0000              add [eax],al
00001F04  0000              add [eax],al
00001F06  0000              add [eax],al
00001F08  0000              add [eax],al
00001F0A  0000              add [eax],al
00001F0C  0000              add [eax],al
00001F0E  0000              add [eax],al
00001F10  0000              add [eax],al
00001F12  0000              add [eax],al
00001F14  0000              add [eax],al
00001F16  0000              add [eax],al
00001F18  0000              add [eax],al
00001F1A  0000              add [eax],al
00001F1C  0000              add [eax],al
00001F1E  0000              add [eax],al
00001F20  0000              add [eax],al
00001F22  0000              add [eax],al
00001F24  0000              add [eax],al
00001F26  0000              add [eax],al
00001F28  0000              add [eax],al
00001F2A  0000              add [eax],al
00001F2C  0000              add [eax],al
00001F2E  0000              add [eax],al
00001F30  0000              add [eax],al
00001F32  0000              add [eax],al
00001F34  0000              add [eax],al
00001F36  0000              add [eax],al
00001F38  0000              add [eax],al
00001F3A  0000              add [eax],al
00001F3C  0000              add [eax],al
00001F3E  0000              add [eax],al
00001F40  0000              add [eax],al
00001F42  0000              add [eax],al
00001F44  0000              add [eax],al
00001F46  0000              add [eax],al
00001F48  0000              add [eax],al
00001F4A  0000              add [eax],al
00001F4C  0000              add [eax],al
00001F4E  0000              add [eax],al
00001F50  0000              add [eax],al
00001F52  0000              add [eax],al
00001F54  0000              add [eax],al
00001F56  0000              add [eax],al
00001F58  0000              add [eax],al
00001F5A  0000              add [eax],al
00001F5C  0000              add [eax],al
00001F5E  0000              add [eax],al
00001F60  0000              add [eax],al
00001F62  0000              add [eax],al
00001F64  0000              add [eax],al
00001F66  0000              add [eax],al
00001F68  0000              add [eax],al
00001F6A  0000              add [eax],al
00001F6C  0000              add [eax],al
00001F6E  0000              add [eax],al
00001F70  0000              add [eax],al
00001F72  0000              add [eax],al
00001F74  0000              add [eax],al
00001F76  0000              add [eax],al
00001F78  0000              add [eax],al
00001F7A  0000              add [eax],al
00001F7C  0000              add [eax],al
00001F7E  0000              add [eax],al
00001F80  0000              add [eax],al
00001F82  0000              add [eax],al
00001F84  0000              add [eax],al
00001F86  0000              add [eax],al
00001F88  0000              add [eax],al
00001F8A  0000              add [eax],al
00001F8C  0000              add [eax],al
00001F8E  0000              add [eax],al
00001F90  0000              add [eax],al
00001F92  0000              add [eax],al
00001F94  0000              add [eax],al
00001F96  0000              add [eax],al
00001F98  0000              add [eax],al
00001F9A  0000              add [eax],al
00001F9C  0000              add [eax],al
00001F9E  0000              add [eax],al
00001FA0  0000              add [eax],al
00001FA2  0000              add [eax],al
00001FA4  0000              add [eax],al
00001FA6  0000              add [eax],al
00001FA8  0000              add [eax],al
00001FAA  0000              add [eax],al
00001FAC  0000              add [eax],al
00001FAE  0000              add [eax],al
00001FB0  0000              add [eax],al
00001FB2  0000              add [eax],al
00001FB4  0000              add [eax],al
00001FB6  0000              add [eax],al
00001FB8  0000              add [eax],al
00001FBA  0000              add [eax],al
00001FBC  0000              add [eax],al
00001FBE  0000              add [eax],al
00001FC0  0000              add [eax],al
00001FC2  0000              add [eax],al
00001FC4  0000              add [eax],al
00001FC6  0000              add [eax],al
00001FC8  0000              add [eax],al
00001FCA  0000              add [eax],al
00001FCC  0000              add [eax],al
00001FCE  0000              add [eax],al
00001FD0  0000              add [eax],al
00001FD2  0000              add [eax],al
00001FD4  0000              add [eax],al
00001FD6  0000              add [eax],al
00001FD8  0000              add [eax],al
00001FDA  0000              add [eax],al
00001FDC  0000              add [eax],al
00001FDE  0000              add [eax],al
00001FE0  0000              add [eax],al
00001FE2  0000              add [eax],al
00001FE4  0000              add [eax],al
00001FE6  0000              add [eax],al
00001FE8  0000              add [eax],al
00001FEA  0000              add [eax],al
00001FEC  0000              add [eax],al
00001FEE  0000              add [eax],al
00001FF0  0000              add [eax],al
00001FF2  0000              add [eax],al
00001FF4  0000              add [eax],al
00001FF6  0000              add [eax],al
00001FF8  0000              add [eax],al
00001FFA  0000              add [eax],al
00001FFC  0000              add [eax],al
00001FFE  0000              add [eax],al
